
CG3002RTOS.elf:     file format elf32-avr

Sections:
Idx Name          Size      VMA       LMA       File off  Algn
  0 .data         000000dc  00800200  0000537a  0000540e  2**0
                  CONTENTS, ALLOC, LOAD, DATA
  1 .text         0000537a  00000000  00000000  00000094  2**1
                  CONTENTS, ALLOC, LOAD, READONLY, CODE
  2 .bss          00000f2a  008002dc  008002dc  000054ea  2**0
                  ALLOC
  3 .comment      0000005c  00000000  00000000  000054ea  2**0
                  CONTENTS, READONLY
  4 .debug_aranges 00000250  00000000  00000000  00005546  2**0
                  CONTENTS, READONLY, DEBUGGING
  5 .debug_info   00005254  00000000  00000000  00005796  2**0
                  CONTENTS, READONLY, DEBUGGING
  6 .debug_abbrev 00000d0f  00000000  00000000  0000a9ea  2**0
                  CONTENTS, READONLY, DEBUGGING
  7 .debug_line   00001524  00000000  00000000  0000b6f9  2**0
                  CONTENTS, READONLY, DEBUGGING
  8 .debug_frame  00000904  00000000  00000000  0000cc20  2**2
                  CONTENTS, READONLY, DEBUGGING
  9 .debug_str    0000166b  00000000  00000000  0000d524  2**0
                  CONTENTS, READONLY, DEBUGGING
 10 .debug_loc    00003591  00000000  00000000  0000eb8f  2**0
                  CONTENTS, READONLY, DEBUGGING
 11 .debug_ranges 00000278  00000000  00000000  00012120  2**0
                  CONTENTS, READONLY, DEBUGGING

Disassembly of section .text:

00000000 <__vectors>:
       0:	9a c1       	rjmp	.+820    	; 0x336 <__ctors_end>
       2:	00 00       	nop
       4:	c9 c1       	rjmp	.+914    	; 0x398 <__bad_interrupt>
       6:	00 00       	nop
       8:	c7 c1       	rjmp	.+910    	; 0x398 <__bad_interrupt>
       a:	00 00       	nop
       c:	c5 c1       	rjmp	.+906    	; 0x398 <__bad_interrupt>
       e:	00 00       	nop
      10:	c3 c1       	rjmp	.+902    	; 0x398 <__bad_interrupt>
      12:	00 00       	nop
      14:	c1 c1       	rjmp	.+898    	; 0x398 <__bad_interrupt>
      16:	00 00       	nop
      18:	bf c1       	rjmp	.+894    	; 0x398 <__bad_interrupt>
      1a:	00 00       	nop
      1c:	bd c1       	rjmp	.+890    	; 0x398 <__bad_interrupt>
      1e:	00 00       	nop
      20:	bb c1       	rjmp	.+886    	; 0x398 <__bad_interrupt>
      22:	00 00       	nop
      24:	b9 c1       	rjmp	.+882    	; 0x398 <__bad_interrupt>
      26:	00 00       	nop
      28:	b7 c1       	rjmp	.+878    	; 0x398 <__bad_interrupt>
      2a:	00 00       	nop
      2c:	b5 c1       	rjmp	.+874    	; 0x398 <__bad_interrupt>
      2e:	00 00       	nop
      30:	b3 c1       	rjmp	.+870    	; 0x398 <__bad_interrupt>
      32:	00 00       	nop
      34:	0c 94 cb 15 	jmp	0x2b96	; 0x2b96 <__vector_13>
      38:	af c1       	rjmp	.+862    	; 0x398 <__bad_interrupt>
      3a:	00 00       	nop
      3c:	ad c1       	rjmp	.+858    	; 0x398 <__bad_interrupt>
      3e:	00 00       	nop
      40:	ab c1       	rjmp	.+854    	; 0x398 <__bad_interrupt>
      42:	00 00       	nop
      44:	a9 c1       	rjmp	.+850    	; 0x398 <__bad_interrupt>
      46:	00 00       	nop
      48:	a7 c1       	rjmp	.+846    	; 0x398 <__bad_interrupt>
      4a:	00 00       	nop
      4c:	a5 c1       	rjmp	.+842    	; 0x398 <__bad_interrupt>
      4e:	00 00       	nop
      50:	a3 c1       	rjmp	.+838    	; 0x398 <__bad_interrupt>
      52:	00 00       	nop
      54:	0c 94 2e 14 	jmp	0x285c	; 0x285c <__vector_21>
      58:	9f c1       	rjmp	.+830    	; 0x398 <__bad_interrupt>
      5a:	00 00       	nop
      5c:	0c 94 97 24 	jmp	0x492e	; 0x492e <__vector_23>
      60:	9b c1       	rjmp	.+822    	; 0x398 <__bad_interrupt>
      62:	00 00       	nop
      64:	0c 94 1f 21 	jmp	0x423e	; 0x423e <__vector_25>
      68:	0c 94 9f 21 	jmp	0x433e	; 0x433e <__vector_26>
      6c:	95 c1       	rjmp	.+810    	; 0x398 <__bad_interrupt>
      6e:	00 00       	nop
      70:	93 c1       	rjmp	.+806    	; 0x398 <__bad_interrupt>
      72:	00 00       	nop
      74:	91 c1       	rjmp	.+802    	; 0x398 <__bad_interrupt>
      76:	00 00       	nop
      78:	8f c1       	rjmp	.+798    	; 0x398 <__bad_interrupt>
      7a:	00 00       	nop
      7c:	8d c1       	rjmp	.+794    	; 0x398 <__bad_interrupt>
      7e:	00 00       	nop
      80:	8b c1       	rjmp	.+790    	; 0x398 <__bad_interrupt>
      82:	00 00       	nop
      84:	89 c1       	rjmp	.+786    	; 0x398 <__bad_interrupt>
      86:	00 00       	nop
      88:	87 c1       	rjmp	.+782    	; 0x398 <__bad_interrupt>
      8a:	00 00       	nop
      8c:	85 c1       	rjmp	.+778    	; 0x398 <__bad_interrupt>
      8e:	00 00       	nop
      90:	0c 94 5f 21 	jmp	0x42be	; 0x42be <__vector_36>
      94:	0c 94 de 21 	jmp	0x43bc	; 0x43bc <__vector_37>
      98:	7f c1       	rjmp	.+766    	; 0x398 <__bad_interrupt>
      9a:	00 00       	nop
      9c:	0c 94 d3 19 	jmp	0x33a6	; 0x33a6 <__vector_39>
      a0:	7b c1       	rjmp	.+758    	; 0x398 <__bad_interrupt>
      a2:	00 00       	nop
      a4:	79 c1       	rjmp	.+754    	; 0x398 <__bad_interrupt>
      a6:	00 00       	nop
      a8:	77 c1       	rjmp	.+750    	; 0x398 <__bad_interrupt>
      aa:	00 00       	nop
      ac:	75 c1       	rjmp	.+746    	; 0x398 <__bad_interrupt>
      ae:	00 00       	nop
      b0:	73 c1       	rjmp	.+742    	; 0x398 <__bad_interrupt>
      b2:	00 00       	nop
      b4:	71 c1       	rjmp	.+738    	; 0x398 <__bad_interrupt>
      b6:	00 00       	nop
      b8:	6f c1       	rjmp	.+734    	; 0x398 <__bad_interrupt>
      ba:	00 00       	nop
      bc:	6d c1       	rjmp	.+730    	; 0x398 <__bad_interrupt>
      be:	00 00       	nop
      c0:	6b c1       	rjmp	.+726    	; 0x398 <__bad_interrupt>
      c2:	00 00       	nop
      c4:	69 c1       	rjmp	.+722    	; 0x398 <__bad_interrupt>
      c6:	00 00       	nop
      c8:	67 c1       	rjmp	.+718    	; 0x398 <__bad_interrupt>
      ca:	00 00       	nop
      cc:	65 c1       	rjmp	.+714    	; 0x398 <__bad_interrupt>
      ce:	00 00       	nop
      d0:	0c 94 1d 22 	jmp	0x443a	; 0x443a <__vector_52>
      d4:	61 c1       	rjmp	.+706    	; 0x398 <__bad_interrupt>
      d6:	00 00       	nop
      d8:	5f c1       	rjmp	.+702    	; 0x398 <__bad_interrupt>
      da:	00 00       	nop
      dc:	0c 94 5c 22 	jmp	0x44b8	; 0x44b8 <__vector_55>
      e0:	5b c1       	rjmp	.+694    	; 0x398 <__bad_interrupt>
      e2:	00 00       	nop
      e4:	03 6e       	ori	r16, 0xE3	; 227
      e6:	db 36       	cpi	r29, 0x6B	; 107
      e8:	3d 9a       	sbi	0x07, 5	; 7
      ea:	99 99       	sbic	0x13, 1	; 19
      ec:	99 3d       	cpi	r25, 0xD9	; 217
      ee:	ab aa       	std	Y+51, r10	; 0x33
      f0:	aa 2a       	or	r10, r26
      f2:	3e 00       	.word	0x003e	; ????
      f4:	00 00       	nop
      f6:	80 3f       	cpi	r24, 0xF0	; 240
      f8:	08 4a       	sbci	r16, 0xA8	; 168
      fa:	d7 3b       	cpi	r29, 0xB7	; 183
      fc:	3b ce       	rjmp	.-906    	; 0xfffffd74 <__eeprom_end+0xff7efd74>
      fe:	01 6e       	ori	r16, 0xE1	; 225
     100:	84 bc       	out	0x24, r8	; 36
     102:	bf fd       	.word	0xfdbf	; ????
     104:	c1 2f       	mov	r28, r17
     106:	3d 6c       	ori	r19, 0xCD	; 205
     108:	74 31       	cpi	r23, 0x14	; 20
     10a:	9a bd       	out	0x2a, r25	; 42
     10c:	56 83       	std	Z+6, r21	; 0x06
     10e:	3d da       	rcall	.-2950   	; 0xfffff58a <__eeprom_end+0xff7ef58a>
     110:	3d 00       	.word	0x003d	; ????
     112:	c7 7f       	andi	r28, 0xF7	; 247
     114:	11 be       	out	0x31, r1	; 49
     116:	d9 e4       	ldi	r29, 0x49	; 73
     118:	bb 4c       	sbci	r27, 0xCB	; 203
     11a:	3e 91       	ld	r19, -X
     11c:	6b aa       	std	Y+51, r6	; 0x33
     11e:	aa be       	out	0x3a, r10	; 58
     120:	00 00       	nop
     122:	00 80       	ld	r0, Z
     124:	3f 07       	cpc	r19, r31
     126:	2c 7a       	andi	r18, 0xAC	; 172
     128:	a5 ba       	out	0x15, r10	; 21
     12a:	6c c5       	rjmp	.+2776   	; 0xc04 <_Z16Drift_correctionv+0x16c>
     12c:	90 da       	rcall	.-2784   	; 0xfffff64e <__eeprom_end+0xff7ef64e>
     12e:	3b 93       	.word	0x933b	; ????
     130:	65 fc       	sbrc	r6, 5
     132:	8b bc       	out	0x2b, r8	; 43
     134:	53 f8       	bld	r5, 3
     136:	10 fd       	sbrc	r17, 0
     138:	3c 56       	subi	r19, 0x6C	; 108
     13a:	92 83       	std	Z+2, r25	; 0x02
     13c:	4d bd       	out	0x2d, r20	; 45
     13e:	87 9d       	mul	r24, r7
     140:	3a b6       	in	r3, 0x3a	; 58
     142:	3d cb       	rjmp	.-2438   	; 0xfffff7be <__eeprom_end+0xff7ef7be>
     144:	c9 bf       	out	0x39, r28	; 57
     146:	5b be       	out	0x3b, r5	; 59
     148:	73 da       	rcall	.-2842   	; 0xfffff630 <__eeprom_end+0xff7ef630>
     14a:	0f c9       	rjmp	.-3554   	; 0xfffff36a <__eeprom_end+0xff7ef36a>
     14c:	3f 05       	cpc	r19, r15
     14e:	a8 4c       	sbci	r26, 0xC8	; 200
     150:	cd b2       	in	r12, 0x1d	; 29
     152:	d4 4e       	sbci	r29, 0xE4	; 228
     154:	b9 38       	cpi	r27, 0x89	; 137
     156:	36 a9       	ldd	r19, Z+54	; 0x36
     158:	02 0c       	add	r0, r2
     15a:	50 b9       	out	0x00, r21	; 0
     15c:	91 86       	std	Z+9, r9	; 0x09
     15e:	88 08       	sbc	r8, r8
     160:	3c a6       	std	Y+44, r3	; 0x2c
     162:	aa aa       	std	Y+50, r10	; 0x32
     164:	2a be       	out	0x3a, r2	; 58
     166:	00 00       	nop
     168:	00 80       	ld	r0, Z
     16a:	3f 07       	cpc	r19, r31
     16c:	63 42       	sbci	r22, 0x23	; 35
     16e:	36 b7       	in	r19, 0x36	; 54
     170:	9b d8       	rcall	.-3786   	; 0xfffff2a8 <__eeprom_end+0xff7ef2a8>
     172:	a7 1a       	sub	r10, r23
     174:	39 68       	ori	r19, 0x89	; 137
     176:	56 18       	sub	r5, r6
     178:	ae ba       	out	0x1e, r10	; 30
     17a:	ab 55       	subi	r26, 0x5B	; 91
     17c:	8c 1d       	adc	r24, r12
     17e:	3c b7       	in	r19, 0x3c	; 60
     180:	cc 57       	subi	r28, 0x7C	; 124
     182:	63 bd       	out	0x23, r22	; 35
     184:	6d ed       	ldi	r22, 0xDD	; 221
     186:	fd 75       	andi	r31, 0x5D	; 93
     188:	3e f6       	brtc	.-114    	; 0x118 <__SREG__+0xd9>
     18a:	17 72       	andi	r17, 0x27	; 39
     18c:	31 bf       	out	0x31, r19	; 49
     18e:	00 00       	nop
     190:	00 80       	ld	r0, Z
     192:	3f 08       	sbc	r3, r15
     194:	00 00       	nop
     196:	00 be       	out	0x30, r0	; 48
     198:	92 24       	eor	r9, r2
     19a:	49 12       	cpse	r4, r25
     19c:	3e ab       	std	Y+54, r19	; 0x36
     19e:	aa aa       	std	Y+50, r10	; 0x32
     1a0:	2a be       	out	0x3a, r2	; 58
     1a2:	cd cc       	rjmp	.-1638   	; 0xfffffb3e <__eeprom_end+0xff7efb3e>
     1a4:	cc 4c       	sbci	r28, 0xCC	; 204
     1a6:	3e 00       	.word	0x003e	; ????
     1a8:	00 00       	nop
     1aa:	80 be       	out	0x30, r8	; 48
     1ac:	ab aa       	std	Y+51, r10	; 0x33
     1ae:	aa aa       	std	Y+50, r10	; 0x32
     1b0:	3e 00       	.word	0x003e	; ????
     1b2:	00 00       	nop
     1b4:	00 bf       	out	0x30, r16	; 48
     1b6:	00 00       	nop
     1b8:	00 80       	ld	r0, Z
     1ba:	3f 00       	.word	0x003f	; ????
     1bc:	00 00       	nop
     1be:	00 00       	nop
     1c0:	08 41       	sbci	r16, 0x18	; 24
     1c2:	78 d3       	rcall	.+1776   	; 0x8b4 <_Z10Read_Accelv+0xac>
     1c4:	bb 43       	sbci	r27, 0x3B	; 59
     1c6:	87 d1       	rcall	.+782    	; 0x4d6 <_Z18Vector_Dot_ProductPfS_+0x16>
     1c8:	13 3d       	cpi	r17, 0xD3	; 211
     1ca:	19 0e       	add	r1, r25
     1cc:	3c c3       	rjmp	.+1656   	; 0x846 <_Z10Read_Accelv+0x3e>
     1ce:	bd 42       	sbci	r27, 0x2D	; 45
     1d0:	82 ad       	ldd	r24, Z+58	; 0x3a
     1d2:	2b 3e       	cpi	r18, 0xEB	; 235
     1d4:	68 ec       	ldi	r22, 0xC8	; 200
     1d6:	82 76       	andi	r24, 0x62	; 98
     1d8:	be d9       	rcall	.-3204   	; 0xfffff556 <__eeprom_end+0xff7ef556>
     1da:	8f e1       	ldi	r24, 0x1F	; 31
     1dc:	a9 3e       	cpi	r26, 0xE9	; 233
     1de:	4c 80       	ldd	r4, Y+4	; 0x04
     1e0:	ef ff       	.word	0xffef	; ????
     1e2:	be 01       	movw	r22, r28
     1e4:	c4 ff       	sbrs	r28, 4
     1e6:	7f 3f       	cpi	r23, 0xFF	; 255
     1e8:	00 00       	nop
     1ea:	00 00       	nop
     1ec:	00 00       	nop
     1ee:	d7 25       	eor	r29, r7
     1f0:	db 25       	eor	r29, r11
     1f2:	cb 25       	eor	r28, r11
     1f4:	d1 25       	eor	r29, r1
     1f6:	20 26       	eor	r2, r16
     1f8:	df 25       	eor	r29, r15
     1fa:	e5 25       	eor	r30, r5
     1fc:	eb 25       	eor	r30, r11
     1fe:	f1 25       	eor	r31, r1
     200:	f7 25       	eor	r31, r7
     202:	fd 25       	eor	r31, r13
     204:	03 26       	eor	r0, r19
     206:	09 26       	eor	r0, r25
     208:	20 26       	eor	r2, r16
     20a:	0f 26       	eor	r0, r31
     20c:	15 26       	eor	r1, r21
     20e:	1b 26       	eor	r1, r27

00000210 <__trampolines_end>:
     210:	00 00       	nop
     212:	09 0a       	sbc	r0, r25
     214:	02 08       	sbc	r0, r2
     216:	0b 0c       	add	r0, r11
     218:	0d 07       	cpc	r16, r29
     21a:	06 03       	mulsu	r16, r22
     21c:	04 01       	movw	r0, r8
	...
     23a:	00 00       	nop
     23c:	11 10       	cpse	r1, r1
     23e:	0f 00       	.word	0x000f	; ????
	...

00000256 <digital_pin_to_bit_mask_PGM>:
     256:	01 02 10 20 20 08 08 10 20 40 10 20 40 80 02 01     ...  ... @. @...
     266:	02 01 08 04 02 01 01 02 04 08 10 20 40 80 80 40     ........... @..@
     276:	20 10 08 04 02 01 80 04 02 01 80 40 20 10 08 04      ..........@ ...
     286:	02 01 08 04 02 01 01 02 04 08 10 20 40 80 01 02     ........... @...
     296:	04 08 10 20 40 80                                   ... @.

0000029c <digital_pin_to_port_PGM>:
     29c:	05 05 05 05 07 05 08 08 08 08 02 02 02 02 0a 0a     ................
     2ac:	08 08 04 04 04 04 01 01 01 01 01 01 01 01 03 03     ................
     2bc:	03 03 03 03 03 03 04 07 07 07 0c 0c 0c 0c 0c 0c     ................
     2cc:	0c 0c 02 02 02 02 06 06 06 06 06 06 06 06 0b 0b     ................
     2dc:	0b 0b 0b 0b 0b 0b                                   ......

000002e2 <port_to_input_PGM>:
     2e2:	00 00 20 00 23 00 26 00 29 00 2c 00 2f 00 32 00     .. .#.&.).,./.2.
     2f2:	00 01 00 00 03 01 06 01 09 01                       ..........

000002fc <port_to_output_PGM>:
     2fc:	00 00 22 00 25 00 28 00 2b 00 2e 00 31 00 34 00     ..".%.(.+...1.4.
     30c:	02 01 00 00 05 01 08 01 0b 01                       ..........

00000316 <port_to_mode_PGM>:
     316:	00 00 21 00 24 00 27 00 2a 00 2d 00 30 00 33 00     ..!.$.'.*.-.0.3.
     326:	01 01 00 00 04 01 07 01 0a 01                       ..........

00000330 <__ctors_start>:
     330:	06 0a       	sbc	r0, r22
     332:	cb 1b       	sub	r28, r27
     334:	62 23       	and	r22, r18

00000336 <__ctors_end>:
     336:	11 24       	eor	r1, r1
     338:	1f be       	out	0x3f, r1	; 63
     33a:	cf ef       	ldi	r28, 0xFF	; 255
     33c:	d1 e2       	ldi	r29, 0x21	; 33
     33e:	de bf       	out	0x3e, r29	; 62
     340:	cd bf       	out	0x3d, r28	; 61
     342:	00 e0       	ldi	r16, 0x00	; 0
     344:	0c bf       	out	0x3c, r16	; 60

00000346 <__do_copy_data>:
     346:	12 e0       	ldi	r17, 0x02	; 2
     348:	a0 e0       	ldi	r26, 0x00	; 0
     34a:	b2 e0       	ldi	r27, 0x02	; 2
     34c:	ea e7       	ldi	r30, 0x7A	; 122
     34e:	f3 e5       	ldi	r31, 0x53	; 83
     350:	00 e0       	ldi	r16, 0x00	; 0
     352:	0b bf       	out	0x3b, r16	; 59
     354:	02 c0       	rjmp	.+4      	; 0x35a <__do_copy_data+0x14>
     356:	07 90       	elpm	r0, Z+
     358:	0d 92       	st	X+, r0
     35a:	ac 3d       	cpi	r26, 0xDC	; 220
     35c:	b1 07       	cpc	r27, r17
     35e:	d9 f7       	brne	.-10     	; 0x356 <__do_copy_data+0x10>

00000360 <__do_clear_bss>:
     360:	22 e1       	ldi	r18, 0x12	; 18
     362:	ac ed       	ldi	r26, 0xDC	; 220
     364:	b2 e0       	ldi	r27, 0x02	; 2
     366:	01 c0       	rjmp	.+2      	; 0x36a <.do_clear_bss_start>

00000368 <.do_clear_bss_loop>:
     368:	1d 92       	st	X+, r1

0000036a <.do_clear_bss_start>:
     36a:	a6 30       	cpi	r26, 0x06	; 6
     36c:	b2 07       	cpc	r27, r18
     36e:	e1 f7       	brne	.-8      	; 0x368 <.do_clear_bss_loop>

00000370 <__do_global_ctors>:
     370:	13 e0       	ldi	r17, 0x03	; 3
     372:	c6 e3       	ldi	r28, 0x36	; 54
     374:	d3 e0       	ldi	r29, 0x03	; 3
     376:	00 e0       	ldi	r16, 0x00	; 0
     378:	06 c0       	rjmp	.+12     	; 0x386 <__do_global_ctors+0x16>
     37a:	22 97       	sbiw	r28, 0x02	; 2
     37c:	01 09       	sbc	r16, r1
     37e:	fe 01       	movw	r30, r28
     380:	0b bf       	out	0x3b, r16	; 59
     382:	0e 94 ec 26 	call	0x4dd8	; 0x4dd8 <__tablejump_elpm__>
     386:	c0 33       	cpi	r28, 0x30	; 48
     388:	d1 07       	cpc	r29, r17
     38a:	80 e0       	ldi	r24, 0x00	; 0
     38c:	08 07       	cpc	r16, r24
     38e:	a9 f7       	brne	.-22     	; 0x37a <__do_global_ctors+0xa>
     390:	0e 94 9f 0b 	call	0x173e	; 0x173e <main>
     394:	0c 94 bb 29 	jmp	0x5376	; 0x5376 <_exit>

00000398 <__bad_interrupt>:
     398:	33 ce       	rjmp	.-922    	; 0x0 <__vectors>

0000039a <_Z15Matrix_MultiplyPA3_fS0_S0_>:
     39a:	2f 92       	push	r2
     39c:	3f 92       	push	r3
     39e:	4f 92       	push	r4
     3a0:	5f 92       	push	r5
     3a2:	6f 92       	push	r6
     3a4:	7f 92       	push	r7
     3a6:	8f 92       	push	r8
     3a8:	9f 92       	push	r9
     3aa:	af 92       	push	r10
     3ac:	bf 92       	push	r11
     3ae:	cf 92       	push	r12
     3b0:	df 92       	push	r13
     3b2:	ef 92       	push	r14
     3b4:	ff 92       	push	r15
     3b6:	0f 93       	push	r16
     3b8:	1f 93       	push	r17
     3ba:	cf 93       	push	r28
     3bc:	df 93       	push	r29
     3be:	cd b7       	in	r28, 0x3d	; 61
     3c0:	de b7       	in	r29, 0x3e	; 62
     3c2:	62 97       	sbiw	r28, 0x12	; 18
     3c4:	0f b6       	in	r0, 0x3f	; 63
     3c6:	f8 94       	cli
     3c8:	de bf       	out	0x3e, r29	; 62
     3ca:	0f be       	out	0x3f, r0	; 63
     3cc:	cd bf       	out	0x3d, r28	; 61
     3ce:	3c 01       	movw	r6, r24
     3d0:	4b 01       	movw	r8, r22
     3d2:	5a 01       	movw	r10, r20
     3d4:	00 e0       	ldi	r16, 0x00	; 0
     3d6:	10 e0       	ldi	r17, 0x00	; 0
     3d8:	f5 01       	movw	r30, r10
     3da:	e0 0f       	add	r30, r16
     3dc:	f1 1f       	adc	r31, r17
     3de:	fe 87       	std	Y+14, r31	; 0x0e
     3e0:	ed 87       	std	Y+13, r30	; 0x0d
     3e2:	e1 2c       	mov	r14, r1
     3e4:	f1 2c       	mov	r15, r1
     3e6:	c3 01       	movw	r24, r6
     3e8:	80 0f       	add	r24, r16
     3ea:	91 1f       	adc	r25, r17
     3ec:	9a 8b       	std	Y+18, r25	; 0x12
     3ee:	89 8b       	std	Y+17, r24	; 0x11
     3f0:	fe 01       	movw	r30, r28
     3f2:	31 96       	adiw	r30, 0x01	; 1
     3f4:	2f 01       	movw	r4, r30
     3f6:	29 88       	ldd	r2, Y+17	; 0x11
     3f8:	3a 88       	ldd	r3, Y+18	; 0x12
     3fa:	c1 2c       	mov	r12, r1
     3fc:	d1 2c       	mov	r13, r1
     3fe:	c4 01       	movw	r24, r8
     400:	8e 0d       	add	r24, r14
     402:	9f 1d       	adc	r25, r15
     404:	98 8b       	std	Y+16, r25	; 0x10
     406:	8f 87       	std	Y+15, r24	; 0x0f
     408:	f1 01       	movw	r30, r2
     40a:	61 91       	ld	r22, Z+
     40c:	71 91       	ld	r23, Z+
     40e:	81 91       	ld	r24, Z+
     410:	91 91       	ld	r25, Z+
     412:	1f 01       	movw	r2, r30
     414:	ef 85       	ldd	r30, Y+15	; 0x0f
     416:	f8 89       	ldd	r31, Y+16	; 0x10
     418:	ec 0d       	add	r30, r12
     41a:	fd 1d       	adc	r31, r13
     41c:	20 81       	ld	r18, Z
     41e:	31 81       	ldd	r19, Z+1	; 0x01
     420:	42 81       	ldd	r20, Z+2	; 0x02
     422:	53 81       	ldd	r21, Z+3	; 0x03
     424:	0e 94 8e 1e 	call	0x3d1c	; 0x3d1c <__mulsf3>
     428:	f2 01       	movw	r30, r4
     42a:	61 93       	st	Z+, r22
     42c:	71 93       	st	Z+, r23
     42e:	81 93       	st	Z+, r24
     430:	91 93       	st	Z+, r25
     432:	2f 01       	movw	r4, r30
     434:	fc e0       	ldi	r31, 0x0C	; 12
     436:	cf 0e       	add	r12, r31
     438:	d1 1c       	adc	r13, r1
     43a:	84 e2       	ldi	r24, 0x24	; 36
     43c:	c8 16       	cp	r12, r24
     43e:	d1 04       	cpc	r13, r1
     440:	19 f7       	brne	.-58     	; 0x408 <_Z15Matrix_MultiplyPA3_fS0_S0_+0x6e>
     442:	2d 81       	ldd	r18, Y+5	; 0x05
     444:	3e 81       	ldd	r19, Y+6	; 0x06
     446:	4f 81       	ldd	r20, Y+7	; 0x07
     448:	58 85       	ldd	r21, Y+8	; 0x08
     44a:	69 81       	ldd	r22, Y+1	; 0x01
     44c:	7a 81       	ldd	r23, Y+2	; 0x02
     44e:	8b 81       	ldd	r24, Y+3	; 0x03
     450:	9c 81       	ldd	r25, Y+4	; 0x04
     452:	0e 94 cf 1b 	call	0x379e	; 0x379e <__addsf3>
     456:	29 85       	ldd	r18, Y+9	; 0x09
     458:	3a 85       	ldd	r19, Y+10	; 0x0a
     45a:	4b 85       	ldd	r20, Y+11	; 0x0b
     45c:	5c 85       	ldd	r21, Y+12	; 0x0c
     45e:	0e 94 cf 1b 	call	0x379e	; 0x379e <__addsf3>
     462:	ed 85       	ldd	r30, Y+13	; 0x0d
     464:	fe 85       	ldd	r31, Y+14	; 0x0e
     466:	61 93       	st	Z+, r22
     468:	71 93       	st	Z+, r23
     46a:	81 93       	st	Z+, r24
     46c:	91 93       	st	Z+, r25
     46e:	fe 87       	std	Y+14, r31	; 0x0e
     470:	ed 87       	std	Y+13, r30	; 0x0d
     472:	f4 e0       	ldi	r31, 0x04	; 4
     474:	ef 0e       	add	r14, r31
     476:	f1 1c       	adc	r15, r1
     478:	8c e0       	ldi	r24, 0x0C	; 12
     47a:	e8 16       	cp	r14, r24
     47c:	f1 04       	cpc	r15, r1
     47e:	09 f0       	breq	.+2      	; 0x482 <_Z15Matrix_MultiplyPA3_fS0_S0_+0xe8>
     480:	b7 cf       	rjmp	.-146    	; 0x3f0 <_Z15Matrix_MultiplyPA3_fS0_S0_+0x56>
     482:	04 5f       	subi	r16, 0xF4	; 244
     484:	1f 4f       	sbci	r17, 0xFF	; 255
     486:	04 32       	cpi	r16, 0x24	; 36
     488:	11 05       	cpc	r17, r1
     48a:	09 f0       	breq	.+2      	; 0x48e <_Z15Matrix_MultiplyPA3_fS0_S0_+0xf4>
     48c:	a5 cf       	rjmp	.-182    	; 0x3d8 <_Z15Matrix_MultiplyPA3_fS0_S0_+0x3e>
     48e:	62 96       	adiw	r28, 0x12	; 18
     490:	0f b6       	in	r0, 0x3f	; 63
     492:	f8 94       	cli
     494:	de bf       	out	0x3e, r29	; 62
     496:	0f be       	out	0x3f, r0	; 63
     498:	cd bf       	out	0x3d, r28	; 61
     49a:	df 91       	pop	r29
     49c:	cf 91       	pop	r28
     49e:	1f 91       	pop	r17
     4a0:	0f 91       	pop	r16
     4a2:	ff 90       	pop	r15
     4a4:	ef 90       	pop	r14
     4a6:	df 90       	pop	r13
     4a8:	cf 90       	pop	r12
     4aa:	bf 90       	pop	r11
     4ac:	af 90       	pop	r10
     4ae:	9f 90       	pop	r9
     4b0:	8f 90       	pop	r8
     4b2:	7f 90       	pop	r7
     4b4:	6f 90       	pop	r6
     4b6:	5f 90       	pop	r5
     4b8:	4f 90       	pop	r4
     4ba:	3f 90       	pop	r3
     4bc:	2f 90       	pop	r2
     4be:	08 95       	ret

000004c0 <_Z18Vector_Dot_ProductPfS_>:
     4c0:	af 92       	push	r10
     4c2:	bf 92       	push	r11
     4c4:	cf 92       	push	r12
     4c6:	df 92       	push	r13
     4c8:	ef 92       	push	r14
     4ca:	ff 92       	push	r15
     4cc:	0f 93       	push	r16
     4ce:	1f 93       	push	r17
     4d0:	cf 93       	push	r28
     4d2:	df 93       	push	r29
     4d4:	5c 01       	movw	r10, r24
     4d6:	eb 01       	movw	r28, r22
     4d8:	00 e0       	ldi	r16, 0x00	; 0
     4da:	10 e0       	ldi	r17, 0x00	; 0
     4dc:	c1 2c       	mov	r12, r1
     4de:	d1 2c       	mov	r13, r1
     4e0:	76 01       	movw	r14, r12
     4e2:	f5 01       	movw	r30, r10
     4e4:	61 91       	ld	r22, Z+
     4e6:	71 91       	ld	r23, Z+
     4e8:	81 91       	ld	r24, Z+
     4ea:	91 91       	ld	r25, Z+
     4ec:	5f 01       	movw	r10, r30
     4ee:	29 91       	ld	r18, Y+
     4f0:	39 91       	ld	r19, Y+
     4f2:	49 91       	ld	r20, Y+
     4f4:	59 91       	ld	r21, Y+
     4f6:	0e 94 8e 1e 	call	0x3d1c	; 0x3d1c <__mulsf3>
     4fa:	9b 01       	movw	r18, r22
     4fc:	ac 01       	movw	r20, r24
     4fe:	c7 01       	movw	r24, r14
     500:	b6 01       	movw	r22, r12
     502:	0e 94 cf 1b 	call	0x379e	; 0x379e <__addsf3>
     506:	6b 01       	movw	r12, r22
     508:	7c 01       	movw	r14, r24
     50a:	0f 5f       	subi	r16, 0xFF	; 255
     50c:	1f 4f       	sbci	r17, 0xFF	; 255
     50e:	03 30       	cpi	r16, 0x03	; 3
     510:	11 05       	cpc	r17, r1
     512:	39 f7       	brne	.-50     	; 0x4e2 <_Z18Vector_Dot_ProductPfS_+0x22>
     514:	df 91       	pop	r29
     516:	cf 91       	pop	r28
     518:	1f 91       	pop	r17
     51a:	0f 91       	pop	r16
     51c:	ff 90       	pop	r15
     51e:	ef 90       	pop	r14
     520:	df 90       	pop	r13
     522:	cf 90       	pop	r12
     524:	bf 90       	pop	r11
     526:	af 90       	pop	r10
     528:	08 95       	ret

0000052a <_Z20Vector_Cross_ProductPfS_S_>:
     52a:	af 92       	push	r10
     52c:	bf 92       	push	r11
     52e:	cf 92       	push	r12
     530:	df 92       	push	r13
     532:	ef 92       	push	r14
     534:	ff 92       	push	r15
     536:	0f 93       	push	r16
     538:	1f 93       	push	r17
     53a:	cf 93       	push	r28
     53c:	df 93       	push	r29
     53e:	5c 01       	movw	r10, r24
     540:	eb 01       	movw	r28, r22
     542:	8a 01       	movw	r16, r20
     544:	fa 01       	movw	r30, r20
     546:	20 85       	ldd	r18, Z+8	; 0x08
     548:	31 85       	ldd	r19, Z+9	; 0x09
     54a:	42 85       	ldd	r20, Z+10	; 0x0a
     54c:	53 85       	ldd	r21, Z+11	; 0x0b
     54e:	6c 81       	ldd	r22, Y+4	; 0x04
     550:	7d 81       	ldd	r23, Y+5	; 0x05
     552:	8e 81       	ldd	r24, Y+6	; 0x06
     554:	9f 81       	ldd	r25, Y+7	; 0x07
     556:	0e 94 8e 1e 	call	0x3d1c	; 0x3d1c <__mulsf3>
     55a:	6b 01       	movw	r12, r22
     55c:	7c 01       	movw	r14, r24
     55e:	f8 01       	movw	r30, r16
     560:	24 81       	ldd	r18, Z+4	; 0x04
     562:	35 81       	ldd	r19, Z+5	; 0x05
     564:	46 81       	ldd	r20, Z+6	; 0x06
     566:	57 81       	ldd	r21, Z+7	; 0x07
     568:	68 85       	ldd	r22, Y+8	; 0x08
     56a:	79 85       	ldd	r23, Y+9	; 0x09
     56c:	8a 85       	ldd	r24, Y+10	; 0x0a
     56e:	9b 85       	ldd	r25, Y+11	; 0x0b
     570:	0e 94 8e 1e 	call	0x3d1c	; 0x3d1c <__mulsf3>
     574:	9b 01       	movw	r18, r22
     576:	ac 01       	movw	r20, r24
     578:	c7 01       	movw	r24, r14
     57a:	b6 01       	movw	r22, r12
     57c:	0e 94 ce 1b 	call	0x379c	; 0x379c <__subsf3>
     580:	f5 01       	movw	r30, r10
     582:	60 83       	st	Z, r22
     584:	71 83       	std	Z+1, r23	; 0x01
     586:	82 83       	std	Z+2, r24	; 0x02
     588:	93 83       	std	Z+3, r25	; 0x03
     58a:	f8 01       	movw	r30, r16
     58c:	20 81       	ld	r18, Z
     58e:	31 81       	ldd	r19, Z+1	; 0x01
     590:	42 81       	ldd	r20, Z+2	; 0x02
     592:	53 81       	ldd	r21, Z+3	; 0x03
     594:	68 85       	ldd	r22, Y+8	; 0x08
     596:	79 85       	ldd	r23, Y+9	; 0x09
     598:	8a 85       	ldd	r24, Y+10	; 0x0a
     59a:	9b 85       	ldd	r25, Y+11	; 0x0b
     59c:	0e 94 8e 1e 	call	0x3d1c	; 0x3d1c <__mulsf3>
     5a0:	6b 01       	movw	r12, r22
     5a2:	7c 01       	movw	r14, r24
     5a4:	f8 01       	movw	r30, r16
     5a6:	20 85       	ldd	r18, Z+8	; 0x08
     5a8:	31 85       	ldd	r19, Z+9	; 0x09
     5aa:	42 85       	ldd	r20, Z+10	; 0x0a
     5ac:	53 85       	ldd	r21, Z+11	; 0x0b
     5ae:	68 81       	ld	r22, Y
     5b0:	79 81       	ldd	r23, Y+1	; 0x01
     5b2:	8a 81       	ldd	r24, Y+2	; 0x02
     5b4:	9b 81       	ldd	r25, Y+3	; 0x03
     5b6:	0e 94 8e 1e 	call	0x3d1c	; 0x3d1c <__mulsf3>
     5ba:	9b 01       	movw	r18, r22
     5bc:	ac 01       	movw	r20, r24
     5be:	c7 01       	movw	r24, r14
     5c0:	b6 01       	movw	r22, r12
     5c2:	0e 94 ce 1b 	call	0x379c	; 0x379c <__subsf3>
     5c6:	f5 01       	movw	r30, r10
     5c8:	64 83       	std	Z+4, r22	; 0x04
     5ca:	75 83       	std	Z+5, r23	; 0x05
     5cc:	86 83       	std	Z+6, r24	; 0x06
     5ce:	97 83       	std	Z+7, r25	; 0x07
     5d0:	f8 01       	movw	r30, r16
     5d2:	24 81       	ldd	r18, Z+4	; 0x04
     5d4:	35 81       	ldd	r19, Z+5	; 0x05
     5d6:	46 81       	ldd	r20, Z+6	; 0x06
     5d8:	57 81       	ldd	r21, Z+7	; 0x07
     5da:	68 81       	ld	r22, Y
     5dc:	79 81       	ldd	r23, Y+1	; 0x01
     5de:	8a 81       	ldd	r24, Y+2	; 0x02
     5e0:	9b 81       	ldd	r25, Y+3	; 0x03
     5e2:	0e 94 8e 1e 	call	0x3d1c	; 0x3d1c <__mulsf3>
     5e6:	6b 01       	movw	r12, r22
     5e8:	7c 01       	movw	r14, r24
     5ea:	f8 01       	movw	r30, r16
     5ec:	20 81       	ld	r18, Z
     5ee:	31 81       	ldd	r19, Z+1	; 0x01
     5f0:	42 81       	ldd	r20, Z+2	; 0x02
     5f2:	53 81       	ldd	r21, Z+3	; 0x03
     5f4:	6c 81       	ldd	r22, Y+4	; 0x04
     5f6:	7d 81       	ldd	r23, Y+5	; 0x05
     5f8:	8e 81       	ldd	r24, Y+6	; 0x06
     5fa:	9f 81       	ldd	r25, Y+7	; 0x07
     5fc:	0e 94 8e 1e 	call	0x3d1c	; 0x3d1c <__mulsf3>
     600:	9b 01       	movw	r18, r22
     602:	ac 01       	movw	r20, r24
     604:	c7 01       	movw	r24, r14
     606:	b6 01       	movw	r22, r12
     608:	0e 94 ce 1b 	call	0x379c	; 0x379c <__subsf3>
     60c:	f5 01       	movw	r30, r10
     60e:	60 87       	std	Z+8, r22	; 0x08
     610:	71 87       	std	Z+9, r23	; 0x09
     612:	82 87       	std	Z+10, r24	; 0x0a
     614:	93 87       	std	Z+11, r25	; 0x0b
     616:	df 91       	pop	r29
     618:	cf 91       	pop	r28
     61a:	1f 91       	pop	r17
     61c:	0f 91       	pop	r16
     61e:	ff 90       	pop	r15
     620:	ef 90       	pop	r14
     622:	df 90       	pop	r13
     624:	cf 90       	pop	r12
     626:	bf 90       	pop	r11
     628:	af 90       	pop	r10
     62a:	08 95       	ret

0000062c <_Z12Vector_ScalePfS_f>:
     62c:	af 92       	push	r10
     62e:	bf 92       	push	r11
     630:	cf 92       	push	r12
     632:	df 92       	push	r13
     634:	ef 92       	push	r14
     636:	ff 92       	push	r15
     638:	0f 93       	push	r16
     63a:	1f 93       	push	r17
     63c:	cf 93       	push	r28
     63e:	df 93       	push	r29
     640:	69 01       	movw	r12, r18
     642:	7a 01       	movw	r14, r20
     644:	eb 01       	movw	r28, r22
     646:	5c 01       	movw	r10, r24
     648:	00 e0       	ldi	r16, 0x00	; 0
     64a:	10 e0       	ldi	r17, 0x00	; 0
     64c:	69 91       	ld	r22, Y+
     64e:	79 91       	ld	r23, Y+
     650:	89 91       	ld	r24, Y+
     652:	99 91       	ld	r25, Y+
     654:	a7 01       	movw	r20, r14
     656:	96 01       	movw	r18, r12
     658:	0e 94 8e 1e 	call	0x3d1c	; 0x3d1c <__mulsf3>
     65c:	f5 01       	movw	r30, r10
     65e:	61 93       	st	Z+, r22
     660:	71 93       	st	Z+, r23
     662:	81 93       	st	Z+, r24
     664:	91 93       	st	Z+, r25
     666:	5f 01       	movw	r10, r30
     668:	0f 5f       	subi	r16, 0xFF	; 255
     66a:	1f 4f       	sbci	r17, 0xFF	; 255
     66c:	03 30       	cpi	r16, 0x03	; 3
     66e:	11 05       	cpc	r17, r1
     670:	69 f7       	brne	.-38     	; 0x64c <_Z12Vector_ScalePfS_f+0x20>
     672:	df 91       	pop	r29
     674:	cf 91       	pop	r28
     676:	1f 91       	pop	r17
     678:	0f 91       	pop	r16
     67a:	ff 90       	pop	r15
     67c:	ef 90       	pop	r14
     67e:	df 90       	pop	r13
     680:	cf 90       	pop	r12
     682:	bf 90       	pop	r11
     684:	af 90       	pop	r10
     686:	08 95       	ret

00000688 <_Z10Vector_AddPfS_S_>:
     688:	cf 92       	push	r12
     68a:	df 92       	push	r13
     68c:	ef 92       	push	r14
     68e:	ff 92       	push	r15
     690:	0f 93       	push	r16
     692:	1f 93       	push	r17
     694:	cf 93       	push	r28
     696:	df 93       	push	r29
     698:	8b 01       	movw	r16, r22
     69a:	ea 01       	movw	r28, r20
     69c:	6c 01       	movw	r12, r24
     69e:	e1 2c       	mov	r14, r1
     6a0:	f1 2c       	mov	r15, r1
     6a2:	f8 01       	movw	r30, r16
     6a4:	61 91       	ld	r22, Z+
     6a6:	71 91       	ld	r23, Z+
     6a8:	81 91       	ld	r24, Z+
     6aa:	91 91       	ld	r25, Z+
     6ac:	8f 01       	movw	r16, r30
     6ae:	29 91       	ld	r18, Y+
     6b0:	39 91       	ld	r19, Y+
     6b2:	49 91       	ld	r20, Y+
     6b4:	59 91       	ld	r21, Y+
     6b6:	0e 94 cf 1b 	call	0x379e	; 0x379e <__addsf3>
     6ba:	f6 01       	movw	r30, r12
     6bc:	61 93       	st	Z+, r22
     6be:	71 93       	st	Z+, r23
     6c0:	81 93       	st	Z+, r24
     6c2:	91 93       	st	Z+, r25
     6c4:	6f 01       	movw	r12, r30
     6c6:	ff ef       	ldi	r31, 0xFF	; 255
     6c8:	ef 1a       	sub	r14, r31
     6ca:	ff 0a       	sbc	r15, r31
     6cc:	83 e0       	ldi	r24, 0x03	; 3
     6ce:	e8 16       	cp	r14, r24
     6d0:	f1 04       	cpc	r15, r1
     6d2:	39 f7       	brne	.-50     	; 0x6a2 <_Z10Vector_AddPfS_S_+0x1a>
     6d4:	df 91       	pop	r29
     6d6:	cf 91       	pop	r28
     6d8:	1f 91       	pop	r17
     6da:	0f 91       	pop	r16
     6dc:	ff 90       	pop	r15
     6de:	ef 90       	pop	r14
     6e0:	df 90       	pop	r13
     6e2:	cf 90       	pop	r12
     6e4:	08 95       	ret

000006e6 <_Z8I2C_Initv>:
     6e6:	83 e0       	ldi	r24, 0x03	; 3
     6e8:	9f e0       	ldi	r25, 0x0F	; 15
     6ea:	0c 94 96 1b 	jmp	0x372c	; 0x372c <_ZN7TwoWire5beginEv>

000006ee <_Z9Gyro_Initv>:
     6ee:	42 e0       	ldi	r20, 0x02	; 2
     6f0:	63 e0       	ldi	r22, 0x03	; 3
     6f2:	8a e1       	ldi	r24, 0x1A	; 26
     6f4:	97 e0       	ldi	r25, 0x07	; 7
     6f6:	0e 94 f2 0c 	call	0x19e4	; 0x19e4 <_ZN3L3G4initENS_10deviceTypeENS_8sa0StateE>
     6fa:	8a e1       	ldi	r24, 0x1A	; 26
     6fc:	97 e0       	ldi	r25, 0x07	; 7
     6fe:	0e 94 34 0c 	call	0x1868	; 0x1868 <_ZN3L3G13enableDefaultEv>
     702:	40 e2       	ldi	r20, 0x20	; 32
     704:	63 e2       	ldi	r22, 0x23	; 35
     706:	8a e1       	ldi	r24, 0x1A	; 26
     708:	97 e0       	ldi	r25, 0x07	; 7
     70a:	0e 94 0b 0c 	call	0x1816	; 0x1816 <_ZN3L3G8writeRegEhh>
     70e:	4f e0       	ldi	r20, 0x0F	; 15
     710:	60 e2       	ldi	r22, 0x20	; 32
     712:	8a e1       	ldi	r24, 0x1A	; 26
     714:	97 e0       	ldi	r25, 0x07	; 7
     716:	0c 94 0b 0c 	jmp	0x1816	; 0x1816 <_ZN3L3G8writeRegEhh>

0000071a <_Z9Read_Gyrov>:
     71a:	8a e1       	ldi	r24, 0x1A	; 26
     71c:	97 e0       	ldi	r25, 0x07	; 7
     71e:	0e 94 48 0c 	call	0x1890	; 0x1890 <_ZN3L3G4readEv>
     722:	40 91 1a 07 	lds	r20, 0x071A
     726:	50 91 1b 07 	lds	r21, 0x071B
     72a:	50 93 e7 07 	sts	0x07E7, r21
     72e:	40 93 e6 07 	sts	0x07E6, r20
     732:	20 91 1c 07 	lds	r18, 0x071C
     736:	30 91 1d 07 	lds	r19, 0x071D
     73a:	30 93 e9 07 	sts	0x07E9, r19
     73e:	20 93 e8 07 	sts	0x07E8, r18
     742:	80 91 1e 07 	lds	r24, 0x071E
     746:	90 91 1f 07 	lds	r25, 0x071F
     74a:	90 93 eb 07 	sts	0x07EB, r25
     74e:	80 93 ea 07 	sts	0x07EA, r24
     752:	60 91 da 07 	lds	r22, 0x07DA
     756:	70 91 db 07 	lds	r23, 0x07DB
     75a:	46 1b       	sub	r20, r22
     75c:	57 0b       	sbc	r21, r23
     75e:	e0 91 4c 02 	lds	r30, 0x024C
     762:	f0 91 4d 02 	lds	r31, 0x024D
     766:	e4 9f       	mul	r30, r20
     768:	b0 01       	movw	r22, r0
     76a:	e5 9f       	mul	r30, r21
     76c:	70 0d       	add	r23, r0
     76e:	f4 9f       	mul	r31, r20
     770:	70 0d       	add	r23, r0
     772:	11 24       	eor	r1, r1
     774:	70 93 d9 07 	sts	0x07D9, r23
     778:	60 93 d8 07 	sts	0x07D8, r22
     77c:	40 91 dc 07 	lds	r20, 0x07DC
     780:	50 91 dd 07 	lds	r21, 0x07DD
     784:	24 1b       	sub	r18, r20
     786:	35 0b       	sbc	r19, r21
     788:	60 91 4e 02 	lds	r22, 0x024E
     78c:	70 91 4f 02 	lds	r23, 0x024F
     790:	62 9f       	mul	r22, r18
     792:	a0 01       	movw	r20, r0
     794:	63 9f       	mul	r22, r19
     796:	50 0d       	add	r21, r0
     798:	72 9f       	mul	r23, r18
     79a:	50 0d       	add	r21, r0
     79c:	11 24       	eor	r1, r1
     79e:	50 93 d7 07 	sts	0x07D7, r21
     7a2:	40 93 d6 07 	sts	0x07D6, r20
     7a6:	20 91 de 07 	lds	r18, 0x07DE
     7aa:	30 91 df 07 	lds	r19, 0x07DF
     7ae:	82 1b       	sub	r24, r18
     7b0:	93 0b       	sbc	r25, r19
     7b2:	40 91 50 02 	lds	r20, 0x0250
     7b6:	50 91 51 02 	lds	r21, 0x0251
     7ba:	48 9f       	mul	r20, r24
     7bc:	90 01       	movw	r18, r0
     7be:	49 9f       	mul	r20, r25
     7c0:	30 0d       	add	r19, r0
     7c2:	58 9f       	mul	r21, r24
     7c4:	30 0d       	add	r19, r0
     7c6:	11 24       	eor	r1, r1
     7c8:	30 93 d5 07 	sts	0x07D5, r19
     7cc:	20 93 d4 07 	sts	0x07D4, r18
     7d0:	08 95       	ret

000007d2 <_Z10Accel_Initv>:
     7d2:	42 e0       	ldi	r20, 0x02	; 2
     7d4:	64 e0       	ldi	r22, 0x04	; 4
     7d6:	84 ef       	ldi	r24, 0xF4	; 244
     7d8:	96 e0       	ldi	r25, 0x06	; 6
     7da:	0e 94 23 13 	call	0x2646	; 0x2646 <_ZN6LSM3034initENS_10deviceTypeENS_8sa0StateE>
     7de:	84 ef       	ldi	r24, 0xF4	; 244
     7e0:	96 e0       	ldi	r25, 0x06	; 6
     7e2:	0e 94 94 11 	call	0x2328	; 0x2328 <_ZN6LSM30313enableDefaultEv>
     7e6:	80 91 0d 07 	lds	r24, 0x070D
     7ea:	82 30       	cpi	r24, 0x02	; 2
     7ec:	29 f0       	breq	.+10     	; 0x7f8 <_Z10Accel_Initv+0x26>
     7ee:	83 30       	cpi	r24, 0x03	; 3
     7f0:	29 f4       	brne	.+10     	; 0x7fc <_Z10Accel_Initv+0x2a>
     7f2:	48 e1       	ldi	r20, 0x18	; 24
     7f4:	61 e2       	ldi	r22, 0x21	; 33
     7f6:	04 c0       	rjmp	.+8      	; 0x800 <_Z10Accel_Initv+0x2e>
     7f8:	48 e2       	ldi	r20, 0x28	; 40
     7fa:	01 c0       	rjmp	.+2      	; 0x7fe <_Z10Accel_Initv+0x2c>
     7fc:	40 e3       	ldi	r20, 0x30	; 48
     7fe:	63 e2       	ldi	r22, 0x23	; 35
     800:	84 ef       	ldi	r24, 0xF4	; 244
     802:	96 e0       	ldi	r25, 0x06	; 6
     804:	0c 94 8c 11 	jmp	0x2318	; 0x2318 <_ZN6LSM3038writeRegEhh>

00000808 <_Z10Read_Accelv>:
     808:	84 ef       	ldi	r24, 0xF4	; 244
     80a:	96 e0       	ldi	r25, 0x06	; 6
     80c:	0e 94 ce 11 	call	0x239c	; 0x239c <_ZN6LSM3037readAccEv>
     810:	40 91 f4 06 	lds	r20, 0x06F4
     814:	50 91 f5 06 	lds	r21, 0x06F5
     818:	84 e0       	ldi	r24, 0x04	; 4
     81a:	55 95       	asr	r21
     81c:	47 95       	ror	r20
     81e:	8a 95       	dec	r24
     820:	e1 f7       	brne	.-8      	; 0x81a <_Z10Read_Accelv+0x12>
     822:	50 93 ed 07 	sts	0x07ED, r21
     826:	40 93 ec 07 	sts	0x07EC, r20
     82a:	20 91 f6 06 	lds	r18, 0x06F6
     82e:	30 91 f7 06 	lds	r19, 0x06F7
     832:	94 e0       	ldi	r25, 0x04	; 4
     834:	35 95       	asr	r19
     836:	27 95       	ror	r18
     838:	9a 95       	dec	r25
     83a:	e1 f7       	brne	.-8      	; 0x834 <_Z10Read_Accelv+0x2c>
     83c:	30 93 ef 07 	sts	0x07EF, r19
     840:	20 93 ee 07 	sts	0x07EE, r18
     844:	80 91 f8 06 	lds	r24, 0x06F8
     848:	90 91 f9 06 	lds	r25, 0x06F9
     84c:	64 e0       	ldi	r22, 0x04	; 4
     84e:	95 95       	asr	r25
     850:	87 95       	ror	r24
     852:	6a 95       	dec	r22
     854:	e1 f7       	brne	.-8      	; 0x84e <_Z10Read_Accelv+0x46>
     856:	90 93 f1 07 	sts	0x07F1, r25
     85a:	80 93 f0 07 	sts	0x07F0, r24
     85e:	60 91 e0 07 	lds	r22, 0x07E0
     862:	70 91 e1 07 	lds	r23, 0x07E1
     866:	46 1b       	sub	r20, r22
     868:	57 0b       	sbc	r21, r23
     86a:	e0 91 52 02 	lds	r30, 0x0252
     86e:	f0 91 53 02 	lds	r31, 0x0253
     872:	e4 9f       	mul	r30, r20
     874:	b0 01       	movw	r22, r0
     876:	e5 9f       	mul	r30, r21
     878:	70 0d       	add	r23, r0
     87a:	f4 9f       	mul	r31, r20
     87c:	70 0d       	add	r23, r0
     87e:	11 24       	eor	r1, r1
     880:	70 93 d3 07 	sts	0x07D3, r23
     884:	60 93 d2 07 	sts	0x07D2, r22
     888:	40 91 e2 07 	lds	r20, 0x07E2
     88c:	50 91 e3 07 	lds	r21, 0x07E3
     890:	24 1b       	sub	r18, r20
     892:	35 0b       	sbc	r19, r21
     894:	60 91 54 02 	lds	r22, 0x0254
     898:	70 91 55 02 	lds	r23, 0x0255
     89c:	62 9f       	mul	r22, r18
     89e:	a0 01       	movw	r20, r0
     8a0:	63 9f       	mul	r22, r19
     8a2:	50 0d       	add	r21, r0
     8a4:	72 9f       	mul	r23, r18
     8a6:	50 0d       	add	r21, r0
     8a8:	11 24       	eor	r1, r1
     8aa:	50 93 d1 07 	sts	0x07D1, r21
     8ae:	40 93 d0 07 	sts	0x07D0, r20
     8b2:	20 91 e4 07 	lds	r18, 0x07E4
     8b6:	30 91 e5 07 	lds	r19, 0x07E5
     8ba:	82 1b       	sub	r24, r18
     8bc:	93 0b       	sbc	r25, r19
     8be:	40 91 56 02 	lds	r20, 0x0256
     8c2:	50 91 57 02 	lds	r21, 0x0257
     8c6:	48 9f       	mul	r20, r24
     8c8:	90 01       	movw	r18, r0
     8ca:	49 9f       	mul	r20, r25
     8cc:	30 0d       	add	r19, r0
     8ce:	58 9f       	mul	r21, r24
     8d0:	30 0d       	add	r19, r0
     8d2:	11 24       	eor	r1, r1
     8d4:	30 93 cf 07 	sts	0x07CF, r19
     8d8:	20 93 ce 07 	sts	0x07CE, r18
     8dc:	08 95       	ret

000008de <_Z12Read_Compassv>:
     8de:	84 ef       	ldi	r24, 0xF4	; 244
     8e0:	96 e0       	ldi	r25, 0x06	; 6
     8e2:	0e 94 40 12 	call	0x2480	; 0x2480 <_ZN6LSM3037readMagEv>
     8e6:	40 91 58 02 	lds	r20, 0x0258
     8ea:	50 91 59 02 	lds	r21, 0x0259
     8ee:	20 91 fa 06 	lds	r18, 0x06FA
     8f2:	30 91 fb 06 	lds	r19, 0x06FB
     8f6:	42 9f       	mul	r20, r18
     8f8:	c0 01       	movw	r24, r0
     8fa:	43 9f       	mul	r20, r19
     8fc:	90 0d       	add	r25, r0
     8fe:	52 9f       	mul	r21, r18
     900:	90 0d       	add	r25, r0
     902:	11 24       	eor	r1, r1
     904:	90 93 cd 07 	sts	0x07CD, r25
     908:	80 93 cc 07 	sts	0x07CC, r24
     90c:	40 91 5a 02 	lds	r20, 0x025A
     910:	50 91 5b 02 	lds	r21, 0x025B
     914:	20 91 fc 06 	lds	r18, 0x06FC
     918:	30 91 fd 06 	lds	r19, 0x06FD
     91c:	42 9f       	mul	r20, r18
     91e:	c0 01       	movw	r24, r0
     920:	43 9f       	mul	r20, r19
     922:	90 0d       	add	r25, r0
     924:	52 9f       	mul	r21, r18
     926:	90 0d       	add	r25, r0
     928:	11 24       	eor	r1, r1
     92a:	90 93 cb 07 	sts	0x07CB, r25
     92e:	80 93 ca 07 	sts	0x07CA, r24
     932:	40 91 5c 02 	lds	r20, 0x025C
     936:	50 91 5d 02 	lds	r21, 0x025D
     93a:	20 91 fe 06 	lds	r18, 0x06FE
     93e:	30 91 ff 06 	lds	r19, 0x06FF
     942:	42 9f       	mul	r20, r18
     944:	c0 01       	movw	r24, r0
     946:	43 9f       	mul	r20, r19
     948:	90 0d       	add	r25, r0
     94a:	52 9f       	mul	r21, r18
     94c:	90 0d       	add	r25, r0
     94e:	11 24       	eor	r1, r1
     950:	90 93 c9 07 	sts	0x07C9, r25
     954:	80 93 c8 07 	sts	0x07C8, r24
     958:	08 95       	ret

0000095a <_Z9Normalizev>:
     95a:	cf 92       	push	r12
     95c:	df 92       	push	r13
     95e:	ef 92       	push	r14
     960:	ff 92       	push	r15
     962:	cf 93       	push	r28
     964:	df 93       	push	r29
     966:	cd b7       	in	r28, 0x3d	; 61
     968:	de b7       	in	r29, 0x3e	; 62
     96a:	a4 97       	sbiw	r28, 0x24	; 36
     96c:	0f b6       	in	r0, 0x3f	; 63
     96e:	f8 94       	cli
     970:	de bf       	out	0x3e, r29	; 62
     972:	0f be       	out	0x3f, r0	; 63
     974:	cd bf       	out	0x3d, r28	; 61
     976:	60 e3       	ldi	r22, 0x30	; 48
     978:	72 e0       	ldi	r23, 0x02	; 2
     97a:	84 e2       	ldi	r24, 0x24	; 36
     97c:	92 e0       	ldi	r25, 0x02	; 2
     97e:	a0 dd       	rcall	.-1216   	; 0x4c0 <_Z18Vector_Dot_ProductPfS_>
     980:	90 58       	subi	r25, 0x80	; 128
     982:	20 e0       	ldi	r18, 0x00	; 0
     984:	30 e0       	ldi	r19, 0x00	; 0
     986:	40 e0       	ldi	r20, 0x00	; 0
     988:	5f e3       	ldi	r21, 0x3F	; 63
     98a:	0e 94 8e 1e 	call	0x3d1c	; 0x3d1c <__mulsf3>
     98e:	6b 01       	movw	r12, r22
     990:	7c 01       	movw	r14, r24
     992:	9b 01       	movw	r18, r22
     994:	ac 01       	movw	r20, r24
     996:	60 e3       	ldi	r22, 0x30	; 48
     998:	72 e0       	ldi	r23, 0x02	; 2
     99a:	ce 01       	movw	r24, r28
     99c:	01 96       	adiw	r24, 0x01	; 1
     99e:	46 de       	rcall	.-884    	; 0x62c <_Z12Vector_ScalePfS_f>
     9a0:	a7 01       	movw	r20, r14
     9a2:	96 01       	movw	r18, r12
     9a4:	64 e2       	ldi	r22, 0x24	; 36
     9a6:	72 e0       	ldi	r23, 0x02	; 2
     9a8:	ce 01       	movw	r24, r28
     9aa:	0d 96       	adiw	r24, 0x0d	; 13
     9ac:	3f de       	rcall	.-898    	; 0x62c <_Z12Vector_ScalePfS_f>
     9ae:	44 e2       	ldi	r20, 0x24	; 36
     9b0:	52 e0       	ldi	r21, 0x02	; 2
     9b2:	be 01       	movw	r22, r28
     9b4:	6f 5f       	subi	r22, 0xFF	; 255
     9b6:	7f 4f       	sbci	r23, 0xFF	; 255
     9b8:	cb 01       	movw	r24, r22
     9ba:	66 de       	rcall	.-820    	; 0x688 <_Z10Vector_AddPfS_S_>
     9bc:	40 e3       	ldi	r20, 0x30	; 48
     9be:	52 e0       	ldi	r21, 0x02	; 2
     9c0:	be 01       	movw	r22, r28
     9c2:	63 5f       	subi	r22, 0xF3	; 243
     9c4:	7f 4f       	sbci	r23, 0xFF	; 255
     9c6:	cb 01       	movw	r24, r22
     9c8:	5f de       	rcall	.-834    	; 0x688 <_Z10Vector_AddPfS_S_>
     9ca:	ae 01       	movw	r20, r28
     9cc:	43 5f       	subi	r20, 0xF3	; 243
     9ce:	5f 4f       	sbci	r21, 0xFF	; 255
     9d0:	be 01       	movw	r22, r28
     9d2:	6f 5f       	subi	r22, 0xFF	; 255
     9d4:	7f 4f       	sbci	r23, 0xFF	; 255
     9d6:	ce 01       	movw	r24, r28
     9d8:	49 96       	adiw	r24, 0x19	; 25
     9da:	a7 dd       	rcall	.-1202   	; 0x52a <_Z20Vector_Cross_ProductPfS_S_>
     9dc:	be 01       	movw	r22, r28
     9de:	6f 5f       	subi	r22, 0xFF	; 255
     9e0:	7f 4f       	sbci	r23, 0xFF	; 255
     9e2:	cb 01       	movw	r24, r22
     9e4:	6d dd       	rcall	.-1318   	; 0x4c0 <_Z18Vector_Dot_ProductPfS_>
     9e6:	9b 01       	movw	r18, r22
     9e8:	ac 01       	movw	r20, r24
     9ea:	60 e0       	ldi	r22, 0x00	; 0
     9ec:	70 e0       	ldi	r23, 0x00	; 0
     9ee:	80 e4       	ldi	r24, 0x40	; 64
     9f0:	90 e4       	ldi	r25, 0x40	; 64
     9f2:	0e 94 ce 1b 	call	0x379c	; 0x379c <__subsf3>
     9f6:	20 e0       	ldi	r18, 0x00	; 0
     9f8:	30 e0       	ldi	r19, 0x00	; 0
     9fa:	40 e0       	ldi	r20, 0x00	; 0
     9fc:	5f e3       	ldi	r21, 0x3F	; 63
     9fe:	0e 94 8e 1e 	call	0x3d1c	; 0x3d1c <__mulsf3>
     a02:	9b 01       	movw	r18, r22
     a04:	ac 01       	movw	r20, r24
     a06:	be 01       	movw	r22, r28
     a08:	6f 5f       	subi	r22, 0xFF	; 255
     a0a:	7f 4f       	sbci	r23, 0xFF	; 255
     a0c:	84 e2       	ldi	r24, 0x24	; 36
     a0e:	92 e0       	ldi	r25, 0x02	; 2
     a10:	0d de       	rcall	.-998    	; 0x62c <_Z12Vector_ScalePfS_f>
     a12:	be 01       	movw	r22, r28
     a14:	63 5f       	subi	r22, 0xF3	; 243
     a16:	7f 4f       	sbci	r23, 0xFF	; 255
     a18:	cb 01       	movw	r24, r22
     a1a:	52 dd       	rcall	.-1372   	; 0x4c0 <_Z18Vector_Dot_ProductPfS_>
     a1c:	9b 01       	movw	r18, r22
     a1e:	ac 01       	movw	r20, r24
     a20:	60 e0       	ldi	r22, 0x00	; 0
     a22:	70 e0       	ldi	r23, 0x00	; 0
     a24:	80 e4       	ldi	r24, 0x40	; 64
     a26:	90 e4       	ldi	r25, 0x40	; 64
     a28:	0e 94 ce 1b 	call	0x379c	; 0x379c <__subsf3>
     a2c:	20 e0       	ldi	r18, 0x00	; 0
     a2e:	30 e0       	ldi	r19, 0x00	; 0
     a30:	40 e0       	ldi	r20, 0x00	; 0
     a32:	5f e3       	ldi	r21, 0x3F	; 63
     a34:	0e 94 8e 1e 	call	0x3d1c	; 0x3d1c <__mulsf3>
     a38:	9b 01       	movw	r18, r22
     a3a:	ac 01       	movw	r20, r24
     a3c:	be 01       	movw	r22, r28
     a3e:	63 5f       	subi	r22, 0xF3	; 243
     a40:	7f 4f       	sbci	r23, 0xFF	; 255
     a42:	80 e3       	ldi	r24, 0x30	; 48
     a44:	92 e0       	ldi	r25, 0x02	; 2
     a46:	f2 dd       	rcall	.-1052   	; 0x62c <_Z12Vector_ScalePfS_f>
     a48:	be 01       	movw	r22, r28
     a4a:	67 5e       	subi	r22, 0xE7	; 231
     a4c:	7f 4f       	sbci	r23, 0xFF	; 255
     a4e:	cb 01       	movw	r24, r22
     a50:	37 dd       	rcall	.-1426   	; 0x4c0 <_Z18Vector_Dot_ProductPfS_>
     a52:	9b 01       	movw	r18, r22
     a54:	ac 01       	movw	r20, r24
     a56:	60 e0       	ldi	r22, 0x00	; 0
     a58:	70 e0       	ldi	r23, 0x00	; 0
     a5a:	80 e4       	ldi	r24, 0x40	; 64
     a5c:	90 e4       	ldi	r25, 0x40	; 64
     a5e:	0e 94 ce 1b 	call	0x379c	; 0x379c <__subsf3>
     a62:	20 e0       	ldi	r18, 0x00	; 0
     a64:	30 e0       	ldi	r19, 0x00	; 0
     a66:	40 e0       	ldi	r20, 0x00	; 0
     a68:	5f e3       	ldi	r21, 0x3F	; 63
     a6a:	0e 94 8e 1e 	call	0x3d1c	; 0x3d1c <__mulsf3>
     a6e:	9b 01       	movw	r18, r22
     a70:	ac 01       	movw	r20, r24
     a72:	be 01       	movw	r22, r28
     a74:	67 5e       	subi	r22, 0xE7	; 231
     a76:	7f 4f       	sbci	r23, 0xFF	; 255
     a78:	8c e3       	ldi	r24, 0x3C	; 60
     a7a:	92 e0       	ldi	r25, 0x02	; 2
     a7c:	d7 dd       	rcall	.-1106   	; 0x62c <_Z12Vector_ScalePfS_f>
     a7e:	a4 96       	adiw	r28, 0x24	; 36
     a80:	0f b6       	in	r0, 0x3f	; 63
     a82:	f8 94       	cli
     a84:	de bf       	out	0x3e, r29	; 62
     a86:	0f be       	out	0x3f, r0	; 63
     a88:	cd bf       	out	0x3d, r28	; 61
     a8a:	df 91       	pop	r29
     a8c:	cf 91       	pop	r28
     a8e:	ff 90       	pop	r15
     a90:	ef 90       	pop	r14
     a92:	df 90       	pop	r13
     a94:	cf 90       	pop	r12
     a96:	08 95       	ret

00000a98 <_Z16Drift_correctionv>:
     a98:	4f 92       	push	r4
     a9a:	5f 92       	push	r5
     a9c:	6f 92       	push	r6
     a9e:	7f 92       	push	r7
     aa0:	8f 92       	push	r8
     aa2:	9f 92       	push	r9
     aa4:	af 92       	push	r10
     aa6:	bf 92       	push	r11
     aa8:	cf 92       	push	r12
     aaa:	df 92       	push	r13
     aac:	ef 92       	push	r14
     aae:	ff 92       	push	r15
     ab0:	60 91 ac 07 	lds	r22, 0x07AC
     ab4:	70 91 ad 07 	lds	r23, 0x07AD
     ab8:	80 91 ae 07 	lds	r24, 0x07AE
     abc:	90 91 af 07 	lds	r25, 0x07AF
     ac0:	80 90 b0 07 	lds	r8, 0x07B0
     ac4:	90 90 b1 07 	lds	r9, 0x07B1
     ac8:	a0 90 b2 07 	lds	r10, 0x07B2
     acc:	b0 90 b3 07 	lds	r11, 0x07B3
     ad0:	c0 90 b4 07 	lds	r12, 0x07B4
     ad4:	d0 90 b5 07 	lds	r13, 0x07B5
     ad8:	e0 90 b6 07 	lds	r14, 0x07B6
     adc:	f0 90 b7 07 	lds	r15, 0x07B7
     ae0:	9b 01       	movw	r18, r22
     ae2:	ac 01       	movw	r20, r24
     ae4:	0e 94 8e 1e 	call	0x3d1c	; 0x3d1c <__mulsf3>
     ae8:	2b 01       	movw	r4, r22
     aea:	3c 01       	movw	r6, r24
     aec:	a5 01       	movw	r20, r10
     aee:	94 01       	movw	r18, r8
     af0:	c5 01       	movw	r24, r10
     af2:	b4 01       	movw	r22, r8
     af4:	0e 94 8e 1e 	call	0x3d1c	; 0x3d1c <__mulsf3>
     af8:	9b 01       	movw	r18, r22
     afa:	ac 01       	movw	r20, r24
     afc:	c3 01       	movw	r24, r6
     afe:	b2 01       	movw	r22, r4
     b00:	0e 94 cf 1b 	call	0x379e	; 0x379e <__addsf3>
     b04:	4b 01       	movw	r8, r22
     b06:	5c 01       	movw	r10, r24
     b08:	a7 01       	movw	r20, r14
     b0a:	96 01       	movw	r18, r12
     b0c:	c7 01       	movw	r24, r14
     b0e:	b6 01       	movw	r22, r12
     b10:	0e 94 8e 1e 	call	0x3d1c	; 0x3d1c <__mulsf3>
     b14:	9b 01       	movw	r18, r22
     b16:	ac 01       	movw	r20, r24
     b18:	c5 01       	movw	r24, r10
     b1a:	b4 01       	movw	r22, r8
     b1c:	0e 94 cf 1b 	call	0x379e	; 0x379e <__addsf3>
     b20:	0e 94 47 1f 	call	0x3e8e	; 0x3e8e <sqrt>
     b24:	20 e0       	ldi	r18, 0x00	; 0
     b26:	30 e0       	ldi	r19, 0x00	; 0
     b28:	40 e8       	ldi	r20, 0x80	; 128
     b2a:	5b e3       	ldi	r21, 0x3B	; 59
     b2c:	0e 94 8e 1e 	call	0x3d1c	; 0x3d1c <__mulsf3>
     b30:	9b 01       	movw	r18, r22
     b32:	ac 01       	movw	r20, r24
     b34:	60 e0       	ldi	r22, 0x00	; 0
     b36:	70 e0       	ldi	r23, 0x00	; 0
     b38:	80 e8       	ldi	r24, 0x80	; 128
     b3a:	9f e3       	ldi	r25, 0x3F	; 63
     b3c:	0e 94 ce 1b 	call	0x379c	; 0x379c <__subsf3>
     b40:	6b 01       	movw	r12, r22
     b42:	7c 01       	movw	r14, r24
     b44:	20 e0       	ldi	r18, 0x00	; 0
     b46:	30 e0       	ldi	r19, 0x00	; 0
     b48:	a9 01       	movw	r20, r18
     b4a:	0e 94 83 1e 	call	0x3d06	; 0x3d06 <__gesf2>
     b4e:	a7 01       	movw	r20, r14
     b50:	96 01       	movw	r18, r12
     b52:	18 16       	cp	r1, r24
     b54:	a4 f4       	brge	.+40     	; 0xb7e <_Z16Drift_correctionv+0xe6>
     b56:	c7 01       	movw	r24, r14
     b58:	b6 01       	movw	r22, r12
     b5a:	0e 94 cf 1b 	call	0x379e	; 0x379e <__addsf3>
     b5e:	9b 01       	movw	r18, r22
     b60:	ac 01       	movw	r20, r24
     b62:	60 e0       	ldi	r22, 0x00	; 0
     b64:	70 e0       	ldi	r23, 0x00	; 0
     b66:	80 e8       	ldi	r24, 0x80	; 128
     b68:	9f e3       	ldi	r25, 0x3F	; 63
     b6a:	0e 94 ce 1b 	call	0x379c	; 0x379c <__subsf3>
     b6e:	20 e0       	ldi	r18, 0x00	; 0
     b70:	30 e0       	ldi	r19, 0x00	; 0
     b72:	a9 01       	movw	r20, r18
     b74:	0e 94 ac 1c 	call	0x3958	; 0x3958 <__cmpsf2>
     b78:	87 ff       	sbrs	r24, 7
     b7a:	1f c0       	rjmp	.+62     	; 0xbba <_Z16Drift_correctionv+0x122>
     b7c:	45 c0       	rjmp	.+138    	; 0xc08 <_Z16Drift_correctionv+0x170>
     b7e:	c7 01       	movw	r24, r14
     b80:	b6 01       	movw	r22, r12
     b82:	0e 94 cf 1b 	call	0x379e	; 0x379e <__addsf3>
     b86:	20 e0       	ldi	r18, 0x00	; 0
     b88:	30 e0       	ldi	r19, 0x00	; 0
     b8a:	40 e8       	ldi	r20, 0x80	; 128
     b8c:	5f e3       	ldi	r21, 0x3F	; 63
     b8e:	0e 94 cf 1b 	call	0x379e	; 0x379e <__addsf3>
     b92:	6b 01       	movw	r12, r22
     b94:	7c 01       	movw	r14, r24
     b96:	20 e0       	ldi	r18, 0x00	; 0
     b98:	30 e0       	ldi	r19, 0x00	; 0
     b9a:	a9 01       	movw	r20, r18
     b9c:	0e 94 ac 1c 	call	0x3958	; 0x3958 <__cmpsf2>
     ba0:	87 fd       	sbrc	r24, 7
     ba2:	32 c0       	rjmp	.+100    	; 0xc08 <_Z16Drift_correctionv+0x170>
     ba4:	20 e0       	ldi	r18, 0x00	; 0
     ba6:	30 e0       	ldi	r19, 0x00	; 0
     ba8:	40 e8       	ldi	r20, 0x80	; 128
     baa:	5f e3       	ldi	r21, 0x3F	; 63
     bac:	c7 01       	movw	r24, r14
     bae:	b6 01       	movw	r22, r12
     bb0:	0e 94 83 1e 	call	0x3d06	; 0x3d06 <__gesf2>
     bb4:	18 16       	cp	r1, r24
     bb6:	64 f1       	brlt	.+88     	; 0xc10 <_Z16Drift_correctionv+0x178>
     bb8:	31 c0       	rjmp	.+98     	; 0xc1c <_Z16Drift_correctionv+0x184>
     bba:	a7 01       	movw	r20, r14
     bbc:	96 01       	movw	r18, r12
     bbe:	c7 01       	movw	r24, r14
     bc0:	b6 01       	movw	r22, r12
     bc2:	0e 94 cf 1b 	call	0x379e	; 0x379e <__addsf3>
     bc6:	9b 01       	movw	r18, r22
     bc8:	ac 01       	movw	r20, r24
     bca:	60 e0       	ldi	r22, 0x00	; 0
     bcc:	70 e0       	ldi	r23, 0x00	; 0
     bce:	80 e8       	ldi	r24, 0x80	; 128
     bd0:	9f e3       	ldi	r25, 0x3F	; 63
     bd2:	0e 94 ce 1b 	call	0x379c	; 0x379c <__subsf3>
     bd6:	20 e0       	ldi	r18, 0x00	; 0
     bd8:	30 e0       	ldi	r19, 0x00	; 0
     bda:	40 e8       	ldi	r20, 0x80	; 128
     bdc:	5f e3       	ldi	r21, 0x3F	; 63
     bde:	0e 94 83 1e 	call	0x3d06	; 0x3d06 <__gesf2>
     be2:	18 16       	cp	r1, r24
     be4:	ac f0       	brlt	.+42     	; 0xc10 <_Z16Drift_correctionv+0x178>
     be6:	a7 01       	movw	r20, r14
     be8:	96 01       	movw	r18, r12
     bea:	c7 01       	movw	r24, r14
     bec:	b6 01       	movw	r22, r12
     bee:	0e 94 cf 1b 	call	0x379e	; 0x379e <__addsf3>
     bf2:	9b 01       	movw	r18, r22
     bf4:	ac 01       	movw	r20, r24
     bf6:	60 e0       	ldi	r22, 0x00	; 0
     bf8:	70 e0       	ldi	r23, 0x00	; 0
     bfa:	80 e8       	ldi	r24, 0x80	; 128
     bfc:	9f e3       	ldi	r25, 0x3F	; 63
     bfe:	0e 94 ce 1b 	call	0x379c	; 0x379c <__subsf3>
     c02:	6b 01       	movw	r12, r22
     c04:	7c 01       	movw	r14, r24
     c06:	0a c0       	rjmp	.+20     	; 0xc1c <_Z16Drift_correctionv+0x184>
     c08:	c1 2c       	mov	r12, r1
     c0a:	d1 2c       	mov	r13, r1
     c0c:	76 01       	movw	r14, r12
     c0e:	06 c0       	rjmp	.+12     	; 0xc1c <_Z16Drift_correctionv+0x184>
     c10:	c1 2c       	mov	r12, r1
     c12:	d1 2c       	mov	r13, r1
     c14:	70 e8       	ldi	r23, 0x80	; 128
     c16:	e7 2e       	mov	r14, r23
     c18:	7f e3       	ldi	r23, 0x3F	; 63
     c1a:	f7 2e       	mov	r15, r23
     c1c:	4c e3       	ldi	r20, 0x3C	; 60
     c1e:	52 e0       	ldi	r21, 0x02	; 2
     c20:	6c ea       	ldi	r22, 0xAC	; 172
     c22:	77 e0       	ldi	r23, 0x07	; 7
     c24:	88 e5       	ldi	r24, 0x58	; 88
     c26:	97 e0       	ldi	r25, 0x07	; 7
     c28:	80 dc       	rcall	.-1792   	; 0x52a <_Z20Vector_Cross_ProductPfS_S_>
     c2a:	2a e0       	ldi	r18, 0x0A	; 10
     c2c:	37 ed       	ldi	r19, 0xD7	; 215
     c2e:	43 ea       	ldi	r20, 0xA3	; 163
     c30:	5c e3       	ldi	r21, 0x3C	; 60
     c32:	c7 01       	movw	r24, r14
     c34:	b6 01       	movw	r22, r12
     c36:	0e 94 8e 1e 	call	0x3d1c	; 0x3d1c <__mulsf3>
     c3a:	9b 01       	movw	r18, r22
     c3c:	ac 01       	movw	r20, r24
     c3e:	68 e5       	ldi	r22, 0x58	; 88
     c40:	77 e0       	ldi	r23, 0x07	; 7
     c42:	88 e8       	ldi	r24, 0x88	; 136
     c44:	97 e0       	ldi	r25, 0x07	; 7
     c46:	f2 dc       	rcall	.-1564   	; 0x62c <_Z12Vector_ScalePfS_f>
     c48:	2c ea       	ldi	r18, 0xAC	; 172
     c4a:	35 ec       	ldi	r19, 0xC5	; 197
     c4c:	47 ea       	ldi	r20, 0xA7	; 167
     c4e:	57 e3       	ldi	r21, 0x37	; 55
     c50:	c7 01       	movw	r24, r14
     c52:	b6 01       	movw	r22, r12
     c54:	0e 94 8e 1e 	call	0x3d1c	; 0x3d1c <__mulsf3>
     c58:	9b 01       	movw	r18, r22
     c5a:	ac 01       	movw	r20, r24
     c5c:	68 e5       	ldi	r22, 0x58	; 88
     c5e:	77 e0       	ldi	r23, 0x07	; 7
     c60:	88 ee       	ldi	r24, 0xE8	; 232
     c62:	92 e0       	ldi	r25, 0x02	; 2
     c64:	e3 dc       	rcall	.-1594   	; 0x62c <_Z12Vector_ScalePfS_f>
     c66:	48 ee       	ldi	r20, 0xE8	; 232
     c68:	52 e0       	ldi	r21, 0x02	; 2
     c6a:	6c e7       	ldi	r22, 0x7C	; 124
     c6c:	77 e0       	ldi	r23, 0x07	; 7
     c6e:	cb 01       	movw	r24, r22
     c70:	0b dd       	rcall	.-1514   	; 0x688 <_Z10Vector_AddPfS_S_>
     c72:	c0 90 b8 07 	lds	r12, 0x07B8
     c76:	d0 90 b9 07 	lds	r13, 0x07B9
     c7a:	e0 90 ba 07 	lds	r14, 0x07BA
     c7e:	f0 90 bb 07 	lds	r15, 0x07BB
     c82:	c7 01       	movw	r24, r14
     c84:	b6 01       	movw	r22, r12
     c86:	0e 94 b0 1c 	call	0x3960	; 0x3960 <cos>
     c8a:	4b 01       	movw	r8, r22
     c8c:	5c 01       	movw	r10, r24
     c8e:	c7 01       	movw	r24, r14
     c90:	b6 01       	movw	r22, r12
     c92:	0e 94 3d 1f 	call	0x3e7a	; 0x3e7a <sin>
     c96:	20 91 24 02 	lds	r18, 0x0224
     c9a:	30 91 25 02 	lds	r19, 0x0225
     c9e:	40 91 26 02 	lds	r20, 0x0226
     ca2:	50 91 27 02 	lds	r21, 0x0227
     ca6:	0e 94 8e 1e 	call	0x3d1c	; 0x3d1c <__mulsf3>
     caa:	6b 01       	movw	r12, r22
     cac:	7c 01       	movw	r14, r24
     cae:	20 91 30 02 	lds	r18, 0x0230
     cb2:	30 91 31 02 	lds	r19, 0x0231
     cb6:	40 91 32 02 	lds	r20, 0x0232
     cba:	50 91 33 02 	lds	r21, 0x0233
     cbe:	c5 01       	movw	r24, r10
     cc0:	b4 01       	movw	r22, r8
     cc2:	0e 94 8e 1e 	call	0x3d1c	; 0x3d1c <__mulsf3>
     cc6:	9b 01       	movw	r18, r22
     cc8:	ac 01       	movw	r20, r24
     cca:	c7 01       	movw	r24, r14
     ccc:	b6 01       	movw	r22, r12
     cce:	0e 94 ce 1b 	call	0x379c	; 0x379c <__subsf3>
     cd2:	9b 01       	movw	r18, r22
     cd4:	ac 01       	movw	r20, r24
     cd6:	6c e3       	ldi	r22, 0x3C	; 60
     cd8:	72 e0       	ldi	r23, 0x02	; 2
     cda:	8c e4       	ldi	r24, 0x4C	; 76
     cdc:	97 e0       	ldi	r25, 0x07	; 7
     cde:	a6 dc       	rcall	.-1716   	; 0x62c <_Z12Vector_ScalePfS_f>
     ce0:	2a e9       	ldi	r18, 0x9A	; 154
     ce2:	39 e9       	ldi	r19, 0x99	; 153
     ce4:	49 e9       	ldi	r20, 0x99	; 153
     ce6:	5f e3       	ldi	r21, 0x3F	; 63
     ce8:	6c e4       	ldi	r22, 0x4C	; 76
     cea:	77 e0       	ldi	r23, 0x07	; 7
     cec:	8c ed       	ldi	r24, 0xDC	; 220
     cee:	92 e0       	ldi	r25, 0x02	; 2
     cf0:	9d dc       	rcall	.-1734   	; 0x62c <_Z12Vector_ScalePfS_f>
     cf2:	4c ed       	ldi	r20, 0xDC	; 220
     cf4:	52 e0       	ldi	r21, 0x02	; 2
     cf6:	68 e8       	ldi	r22, 0x88	; 136
     cf8:	77 e0       	ldi	r23, 0x07	; 7
     cfa:	cb 01       	movw	r24, r22
     cfc:	c5 dc       	rcall	.-1654   	; 0x688 <_Z10Vector_AddPfS_S_>
     cfe:	2c ea       	ldi	r18, 0xAC	; 172
     d00:	35 ec       	ldi	r19, 0xC5	; 197
     d02:	47 ea       	ldi	r20, 0xA7	; 167
     d04:	57 e3       	ldi	r21, 0x37	; 55
     d06:	6c e4       	ldi	r22, 0x4C	; 76
     d08:	77 e0       	ldi	r23, 0x07	; 7
     d0a:	88 ee       	ldi	r24, 0xE8	; 232
     d0c:	92 e0       	ldi	r25, 0x02	; 2
     d0e:	8e dc       	rcall	.-1764   	; 0x62c <_Z12Vector_ScalePfS_f>
     d10:	48 ee       	ldi	r20, 0xE8	; 232
     d12:	52 e0       	ldi	r21, 0x02	; 2
     d14:	6c e7       	ldi	r22, 0x7C	; 124
     d16:	77 e0       	ldi	r23, 0x07	; 7
     d18:	cb 01       	movw	r24, r22
     d1a:	ff 90       	pop	r15
     d1c:	ef 90       	pop	r14
     d1e:	df 90       	pop	r13
     d20:	cf 90       	pop	r12
     d22:	bf 90       	pop	r11
     d24:	af 90       	pop	r10
     d26:	9f 90       	pop	r9
     d28:	8f 90       	pop	r8
     d2a:	7f 90       	pop	r7
     d2c:	6f 90       	pop	r6
     d2e:	5f 90       	pop	r5
     d30:	4f 90       	pop	r4
     d32:	aa cc       	rjmp	.-1708   	; 0x688 <_Z10Vector_AddPfS_S_>

00000d34 <_Z13Matrix_updatev>:
     d34:	4f 92       	push	r4
     d36:	5f 92       	push	r5
     d38:	6f 92       	push	r6
     d3a:	7f 92       	push	r7
     d3c:	8f 92       	push	r8
     d3e:	9f 92       	push	r9
     d40:	af 92       	push	r10
     d42:	bf 92       	push	r11
     d44:	cf 92       	push	r12
     d46:	df 92       	push	r13
     d48:	ef 92       	push	r14
     d4a:	ff 92       	push	r15
     d4c:	0f 93       	push	r16
     d4e:	1f 93       	push	r17
     d50:	cf 93       	push	r28
     d52:	df 93       	push	r29
     d54:	00 d0       	rcall	.+0      	; 0xd56 <_Z13Matrix_updatev+0x22>
     d56:	1f 92       	push	r1
     d58:	cd b7       	in	r28, 0x3d	; 61
     d5a:	de b7       	in	r29, 0x3e	; 62
     d5c:	60 91 d8 07 	lds	r22, 0x07D8
     d60:	70 91 d9 07 	lds	r23, 0x07D9
     d64:	88 27       	eor	r24, r24
     d66:	77 fd       	sbrc	r23, 7
     d68:	80 95       	com	r24
     d6a:	98 2f       	mov	r25, r24
     d6c:	0e 94 49 1d 	call	0x3a92	; 0x3a92 <__floatsisf>
     d70:	29 e7       	ldi	r18, 0x79	; 121
     d72:	32 e2       	ldi	r19, 0x22	; 34
     d74:	40 ea       	ldi	r20, 0xA0	; 160
     d76:	5a e3       	ldi	r21, 0x3A	; 58
     d78:	0e 94 8e 1e 	call	0x3d1c	; 0x3d1c <__mulsf3>
     d7c:	60 93 a0 07 	sts	0x07A0, r22
     d80:	70 93 a1 07 	sts	0x07A1, r23
     d84:	80 93 a2 07 	sts	0x07A2, r24
     d88:	90 93 a3 07 	sts	0x07A3, r25
     d8c:	60 91 d6 07 	lds	r22, 0x07D6
     d90:	70 91 d7 07 	lds	r23, 0x07D7
     d94:	88 27       	eor	r24, r24
     d96:	77 fd       	sbrc	r23, 7
     d98:	80 95       	com	r24
     d9a:	98 2f       	mov	r25, r24
     d9c:	0e 94 49 1d 	call	0x3a92	; 0x3a92 <__floatsisf>
     da0:	29 e7       	ldi	r18, 0x79	; 121
     da2:	32 e2       	ldi	r19, 0x22	; 34
     da4:	40 ea       	ldi	r20, 0xA0	; 160
     da6:	5a e3       	ldi	r21, 0x3A	; 58
     da8:	0e 94 8e 1e 	call	0x3d1c	; 0x3d1c <__mulsf3>
     dac:	60 93 a4 07 	sts	0x07A4, r22
     db0:	70 93 a5 07 	sts	0x07A5, r23
     db4:	80 93 a6 07 	sts	0x07A6, r24
     db8:	90 93 a7 07 	sts	0x07A7, r25
     dbc:	60 91 d4 07 	lds	r22, 0x07D4
     dc0:	70 91 d5 07 	lds	r23, 0x07D5
     dc4:	88 27       	eor	r24, r24
     dc6:	77 fd       	sbrc	r23, 7
     dc8:	80 95       	com	r24
     dca:	98 2f       	mov	r25, r24
     dcc:	0e 94 49 1d 	call	0x3a92	; 0x3a92 <__floatsisf>
     dd0:	29 e7       	ldi	r18, 0x79	; 121
     dd2:	32 e2       	ldi	r19, 0x22	; 34
     dd4:	40 ea       	ldi	r20, 0xA0	; 160
     dd6:	5a e3       	ldi	r21, 0x3A	; 58
     dd8:	0e 94 8e 1e 	call	0x3d1c	; 0x3d1c <__mulsf3>
     ddc:	60 93 a8 07 	sts	0x07A8, r22
     de0:	70 93 a9 07 	sts	0x07A9, r23
     de4:	80 93 aa 07 	sts	0x07AA, r24
     de8:	90 93 ab 07 	sts	0x07AB, r25
     dec:	60 91 d2 07 	lds	r22, 0x07D2
     df0:	70 91 d3 07 	lds	r23, 0x07D3
     df4:	88 27       	eor	r24, r24
     df6:	77 fd       	sbrc	r23, 7
     df8:	80 95       	com	r24
     dfa:	98 2f       	mov	r25, r24
     dfc:	0e 94 49 1d 	call	0x3a92	; 0x3a92 <__floatsisf>
     e00:	60 93 ac 07 	sts	0x07AC, r22
     e04:	70 93 ad 07 	sts	0x07AD, r23
     e08:	80 93 ae 07 	sts	0x07AE, r24
     e0c:	90 93 af 07 	sts	0x07AF, r25
     e10:	60 91 d0 07 	lds	r22, 0x07D0
     e14:	70 91 d1 07 	lds	r23, 0x07D1
     e18:	88 27       	eor	r24, r24
     e1a:	77 fd       	sbrc	r23, 7
     e1c:	80 95       	com	r24
     e1e:	98 2f       	mov	r25, r24
     e20:	0e 94 49 1d 	call	0x3a92	; 0x3a92 <__floatsisf>
     e24:	60 93 b0 07 	sts	0x07B0, r22
     e28:	70 93 b1 07 	sts	0x07B1, r23
     e2c:	80 93 b2 07 	sts	0x07B2, r24
     e30:	90 93 b3 07 	sts	0x07B3, r25
     e34:	60 91 ce 07 	lds	r22, 0x07CE
     e38:	70 91 cf 07 	lds	r23, 0x07CF
     e3c:	88 27       	eor	r24, r24
     e3e:	77 fd       	sbrc	r23, 7
     e40:	80 95       	com	r24
     e42:	98 2f       	mov	r25, r24
     e44:	0e 94 49 1d 	call	0x3a92	; 0x3a92 <__floatsisf>
     e48:	60 93 b4 07 	sts	0x07B4, r22
     e4c:	70 93 b5 07 	sts	0x07B5, r23
     e50:	80 93 b6 07 	sts	0x07B6, r24
     e54:	90 93 b7 07 	sts	0x07B7, r25
     e58:	4c e7       	ldi	r20, 0x7C	; 124
     e5a:	57 e0       	ldi	r21, 0x07	; 7
     e5c:	60 ea       	ldi	r22, 0xA0	; 160
     e5e:	77 e0       	ldi	r23, 0x07	; 7
     e60:	80 e7       	ldi	r24, 0x70	; 112
     e62:	97 e0       	ldi	r25, 0x07	; 7
     e64:	11 dc       	rcall	.-2014   	; 0x688 <_Z10Vector_AddPfS_S_>
     e66:	48 e8       	ldi	r20, 0x88	; 136
     e68:	57 e0       	ldi	r21, 0x07	; 7
     e6a:	60 e7       	ldi	r22, 0x70	; 112
     e6c:	77 e0       	ldi	r23, 0x07	; 7
     e6e:	84 e9       	ldi	r24, 0x94	; 148
     e70:	97 e0       	ldi	r25, 0x07	; 7
     e72:	0a dc       	rcall	.-2028   	; 0x688 <_Z10Vector_AddPfS_S_>
     e74:	10 92 00 02 	sts	0x0200, r1
     e78:	10 92 01 02 	sts	0x0201, r1
     e7c:	10 92 02 02 	sts	0x0202, r1
     e80:	10 92 03 02 	sts	0x0203, r1
     e84:	c0 90 48 02 	lds	r12, 0x0248
     e88:	d0 90 49 02 	lds	r13, 0x0249
     e8c:	e0 90 4a 02 	lds	r14, 0x024A
     e90:	f0 90 4b 02 	lds	r15, 0x024B
     e94:	46 01       	movw	r8, r12
     e96:	57 01       	movw	r10, r14
     e98:	b7 fa       	bst	r11, 7
     e9a:	b0 94       	com	r11
     e9c:	b7 f8       	bld	r11, 7
     e9e:	b0 94       	com	r11
     ea0:	40 90 9c 07 	lds	r4, 0x079C
     ea4:	50 90 9d 07 	lds	r5, 0x079D
     ea8:	60 90 9e 07 	lds	r6, 0x079E
     eac:	70 90 9f 07 	lds	r7, 0x079F
     eb0:	a3 01       	movw	r20, r6
     eb2:	92 01       	movw	r18, r4
     eb4:	c5 01       	movw	r24, r10
     eb6:	b4 01       	movw	r22, r8
     eb8:	0e 94 8e 1e 	call	0x3d1c	; 0x3d1c <__mulsf3>
     ebc:	60 93 04 02 	sts	0x0204, r22
     ec0:	70 93 05 02 	sts	0x0205, r23
     ec4:	80 93 06 02 	sts	0x0206, r24
     ec8:	90 93 07 02 	sts	0x0207, r25
     ecc:	80 91 98 07 	lds	r24, 0x0798
     ed0:	90 91 99 07 	lds	r25, 0x0799
     ed4:	a0 91 9a 07 	lds	r26, 0x079A
     ed8:	b0 91 9b 07 	lds	r27, 0x079B
     edc:	89 83       	std	Y+1, r24	; 0x01
     ede:	9a 83       	std	Y+2, r25	; 0x02
     ee0:	ab 83       	std	Y+3, r26	; 0x03
     ee2:	bc 83       	std	Y+4, r27	; 0x04
     ee4:	9c 01       	movw	r18, r24
     ee6:	ad 01       	movw	r20, r26
     ee8:	c7 01       	movw	r24, r14
     eea:	b6 01       	movw	r22, r12
     eec:	0e 94 8e 1e 	call	0x3d1c	; 0x3d1c <__mulsf3>
     ef0:	60 93 08 02 	sts	0x0208, r22
     ef4:	70 93 09 02 	sts	0x0209, r23
     ef8:	80 93 0a 02 	sts	0x020A, r24
     efc:	90 93 0b 02 	sts	0x020B, r25
     f00:	a3 01       	movw	r20, r6
     f02:	92 01       	movw	r18, r4
     f04:	c7 01       	movw	r24, r14
     f06:	b6 01       	movw	r22, r12
     f08:	0e 94 8e 1e 	call	0x3d1c	; 0x3d1c <__mulsf3>
     f0c:	60 93 0c 02 	sts	0x020C, r22
     f10:	70 93 0d 02 	sts	0x020D, r23
     f14:	80 93 0e 02 	sts	0x020E, r24
     f18:	90 93 0f 02 	sts	0x020F, r25
     f1c:	10 92 10 02 	sts	0x0210, r1
     f20:	10 92 11 02 	sts	0x0211, r1
     f24:	10 92 12 02 	sts	0x0212, r1
     f28:	10 92 13 02 	sts	0x0213, r1
     f2c:	40 90 94 07 	lds	r4, 0x0794
     f30:	50 90 95 07 	lds	r5, 0x0795
     f34:	60 90 96 07 	lds	r6, 0x0796
     f38:	70 90 97 07 	lds	r7, 0x0797
     f3c:	a3 01       	movw	r20, r6
     f3e:	92 01       	movw	r18, r4
     f40:	c5 01       	movw	r24, r10
     f42:	b4 01       	movw	r22, r8
     f44:	0e 94 8e 1e 	call	0x3d1c	; 0x3d1c <__mulsf3>
     f48:	60 93 14 02 	sts	0x0214, r22
     f4c:	70 93 15 02 	sts	0x0215, r23
     f50:	80 93 16 02 	sts	0x0216, r24
     f54:	90 93 17 02 	sts	0x0217, r25
     f58:	29 81       	ldd	r18, Y+1	; 0x01
     f5a:	3a 81       	ldd	r19, Y+2	; 0x02
     f5c:	4b 81       	ldd	r20, Y+3	; 0x03
     f5e:	5c 81       	ldd	r21, Y+4	; 0x04
     f60:	c5 01       	movw	r24, r10
     f62:	b4 01       	movw	r22, r8
     f64:	0e 94 8e 1e 	call	0x3d1c	; 0x3d1c <__mulsf3>
     f68:	60 93 18 02 	sts	0x0218, r22
     f6c:	70 93 19 02 	sts	0x0219, r23
     f70:	80 93 1a 02 	sts	0x021A, r24
     f74:	90 93 1b 02 	sts	0x021B, r25
     f78:	a3 01       	movw	r20, r6
     f7a:	92 01       	movw	r18, r4
     f7c:	c7 01       	movw	r24, r14
     f7e:	b6 01       	movw	r22, r12
     f80:	0e 94 8e 1e 	call	0x3d1c	; 0x3d1c <__mulsf3>
     f84:	60 93 1c 02 	sts	0x021C, r22
     f88:	70 93 1d 02 	sts	0x021D, r23
     f8c:	80 93 1e 02 	sts	0x021E, r24
     f90:	90 93 1f 02 	sts	0x021F, r25
     f94:	10 92 20 02 	sts	0x0220, r1
     f98:	10 92 21 02 	sts	0x0221, r1
     f9c:	10 92 22 02 	sts	0x0222, r1
     fa0:	10 92 23 02 	sts	0x0223, r1
     fa4:	46 e2       	ldi	r20, 0x26	; 38
     fa6:	57 e0       	ldi	r21, 0x07	; 7
     fa8:	60 e0       	ldi	r22, 0x00	; 0
     faa:	72 e0       	ldi	r23, 0x02	; 2
     fac:	84 e2       	ldi	r24, 0x24	; 36
     fae:	92 e0       	ldi	r25, 0x02	; 2
     fb0:	f4 d9       	rcall	.-3096   	; 0x39a <_Z15Matrix_MultiplyPA3_fS0_S0_>
     fb2:	e4 e2       	ldi	r30, 0x24	; 36
     fb4:	ae 2e       	mov	r10, r30
     fb6:	e2 e0       	ldi	r30, 0x02	; 2
     fb8:	be 2e       	mov	r11, r30
     fba:	06 e2       	ldi	r16, 0x26	; 38
     fbc:	17 e0       	ldi	r17, 0x07	; 7
     fbe:	e1 2c       	mov	r14, r1
     fc0:	f1 2c       	mov	r15, r1
     fc2:	65 01       	movw	r12, r10
     fc4:	ce 0c       	add	r12, r14
     fc6:	df 1c       	adc	r13, r15
     fc8:	f8 01       	movw	r30, r16
     fca:	ee 0d       	add	r30, r14
     fcc:	ff 1d       	adc	r31, r15
     fce:	20 81       	ld	r18, Z
     fd0:	31 81       	ldd	r19, Z+1	; 0x01
     fd2:	42 81       	ldd	r20, Z+2	; 0x02
     fd4:	53 81       	ldd	r21, Z+3	; 0x03
     fd6:	d6 01       	movw	r26, r12
     fd8:	6d 91       	ld	r22, X+
     fda:	7d 91       	ld	r23, X+
     fdc:	8d 91       	ld	r24, X+
     fde:	9c 91       	ld	r25, X
     fe0:	0e 94 cf 1b 	call	0x379e	; 0x379e <__addsf3>
     fe4:	f6 01       	movw	r30, r12
     fe6:	60 83       	st	Z, r22
     fe8:	71 83       	std	Z+1, r23	; 0x01
     fea:	82 83       	std	Z+2, r24	; 0x02
     fec:	93 83       	std	Z+3, r25	; 0x03
     fee:	f4 e0       	ldi	r31, 0x04	; 4
     ff0:	ef 0e       	add	r14, r31
     ff2:	f1 1c       	adc	r15, r1
     ff4:	8c e0       	ldi	r24, 0x0C	; 12
     ff6:	e8 16       	cp	r14, r24
     ff8:	f1 04       	cpc	r15, r1
     ffa:	19 f7       	brne	.-58     	; 0xfc2 <_Z13Matrix_updatev+0x28e>
     ffc:	9c e0       	ldi	r25, 0x0C	; 12
     ffe:	a9 0e       	add	r10, r25
    1000:	b1 1c       	adc	r11, r1
    1002:	04 5f       	subi	r16, 0xF4	; 244
    1004:	1f 4f       	sbci	r17, 0xFF	; 255
    1006:	a8 e4       	ldi	r26, 0x48	; 72
    1008:	aa 16       	cp	r10, r26
    100a:	a2 e0       	ldi	r26, 0x02	; 2
    100c:	ba 06       	cpc	r11, r26
    100e:	b9 f6       	brne	.-82     	; 0xfbe <_Z13Matrix_updatev+0x28a>
    1010:	0f 90       	pop	r0
    1012:	0f 90       	pop	r0
    1014:	0f 90       	pop	r0
    1016:	0f 90       	pop	r0
    1018:	df 91       	pop	r29
    101a:	cf 91       	pop	r28
    101c:	1f 91       	pop	r17
    101e:	0f 91       	pop	r16
    1020:	ff 90       	pop	r15
    1022:	ef 90       	pop	r14
    1024:	df 90       	pop	r13
    1026:	cf 90       	pop	r12
    1028:	bf 90       	pop	r11
    102a:	af 90       	pop	r10
    102c:	9f 90       	pop	r9
    102e:	8f 90       	pop	r8
    1030:	7f 90       	pop	r7
    1032:	6f 90       	pop	r6
    1034:	5f 90       	pop	r5
    1036:	4f 90       	pop	r4
    1038:	08 95       	ret

0000103a <_Z12Euler_anglesv>:
    103a:	60 91 3c 02 	lds	r22, 0x023C
    103e:	70 91 3d 02 	lds	r23, 0x023D
    1042:	80 91 3e 02 	lds	r24, 0x023E
    1046:	90 91 3f 02 	lds	r25, 0x023F
    104a:	0e 94 33 1c 	call	0x3866	; 0x3866 <asin>
    104e:	dc 01       	movw	r26, r24
    1050:	cb 01       	movw	r24, r22
    1052:	b0 58       	subi	r27, 0x80	; 128
    1054:	80 93 68 07 	sts	0x0768, r24
    1058:	90 93 69 07 	sts	0x0769, r25
    105c:	a0 93 6a 07 	sts	0x076A, r26
    1060:	b0 93 6b 07 	sts	0x076B, r27
    1064:	20 91 44 02 	lds	r18, 0x0244
    1068:	30 91 45 02 	lds	r19, 0x0245
    106c:	40 91 46 02 	lds	r20, 0x0246
    1070:	50 91 47 02 	lds	r21, 0x0247
    1074:	60 91 40 02 	lds	r22, 0x0240
    1078:	70 91 41 02 	lds	r23, 0x0241
    107c:	80 91 42 02 	lds	r24, 0x0242
    1080:	90 91 43 02 	lds	r25, 0x0243
    1084:	0e 94 59 1c 	call	0x38b2	; 0x38b2 <atan2>
    1088:	60 93 6c 07 	sts	0x076C, r22
    108c:	70 93 6d 07 	sts	0x076D, r23
    1090:	80 93 6e 07 	sts	0x076E, r24
    1094:	90 93 6f 07 	sts	0x076F, r25
    1098:	20 91 24 02 	lds	r18, 0x0224
    109c:	30 91 25 02 	lds	r19, 0x0225
    10a0:	40 91 26 02 	lds	r20, 0x0226
    10a4:	50 91 27 02 	lds	r21, 0x0227
    10a8:	60 91 30 02 	lds	r22, 0x0230
    10ac:	70 91 31 02 	lds	r23, 0x0231
    10b0:	80 91 32 02 	lds	r24, 0x0232
    10b4:	90 91 33 02 	lds	r25, 0x0233
    10b8:	0e 94 59 1c 	call	0x38b2	; 0x38b2 <atan2>
    10bc:	60 93 64 07 	sts	0x0764, r22
    10c0:	70 93 65 07 	sts	0x0765, r23
    10c4:	80 93 66 07 	sts	0x0766, r24
    10c8:	90 93 67 07 	sts	0x0767, r25
    10cc:	08 95       	ret

000010ce <_Z15Compass_Headingv>:
    10ce:	4f 92       	push	r4
    10d0:	5f 92       	push	r5
    10d2:	6f 92       	push	r6
    10d4:	7f 92       	push	r7
    10d6:	8f 92       	push	r8
    10d8:	9f 92       	push	r9
    10da:	af 92       	push	r10
    10dc:	bf 92       	push	r11
    10de:	cf 92       	push	r12
    10e0:	df 92       	push	r13
    10e2:	ef 92       	push	r14
    10e4:	ff 92       	push	r15
    10e6:	0f 93       	push	r16
    10e8:	1f 93       	push	r17
    10ea:	cf 93       	push	r28
    10ec:	df 93       	push	r29
    10ee:	cd b7       	in	r28, 0x3d	; 61
    10f0:	de b7       	in	r29, 0x3e	; 62
    10f2:	60 97       	sbiw	r28, 0x10	; 16
    10f4:	0f b6       	in	r0, 0x3f	; 63
    10f6:	f8 94       	cli
    10f8:	de bf       	out	0x3e, r29	; 62
    10fa:	0f be       	out	0x3f, r0	; 63
    10fc:	cd bf       	out	0x3d, r28	; 61
    10fe:	c0 90 6c 07 	lds	r12, 0x076C
    1102:	d0 90 6d 07 	lds	r13, 0x076D
    1106:	e0 90 6e 07 	lds	r14, 0x076E
    110a:	f0 90 6f 07 	lds	r15, 0x076F
    110e:	c7 01       	movw	r24, r14
    1110:	b6 01       	movw	r22, r12
    1112:	0e 94 b0 1c 	call	0x3960	; 0x3960 <cos>
    1116:	69 83       	std	Y+1, r22	; 0x01
    1118:	7a 83       	std	Y+2, r23	; 0x02
    111a:	8b 83       	std	Y+3, r24	; 0x03
    111c:	9c 83       	std	Y+4, r25	; 0x04
    111e:	c7 01       	movw	r24, r14
    1120:	b6 01       	movw	r22, r12
    1122:	0e 94 3d 1f 	call	0x3e7a	; 0x3e7a <sin>
    1126:	6d 83       	std	Y+5, r22	; 0x05
    1128:	7e 83       	std	Y+6, r23	; 0x06
    112a:	8f 83       	std	Y+7, r24	; 0x07
    112c:	98 87       	std	Y+8, r25	; 0x08
    112e:	c0 90 68 07 	lds	r12, 0x0768
    1132:	d0 90 69 07 	lds	r13, 0x0769
    1136:	e0 90 6a 07 	lds	r14, 0x076A
    113a:	f0 90 6b 07 	lds	r15, 0x076B
    113e:	c7 01       	movw	r24, r14
    1140:	b6 01       	movw	r22, r12
    1142:	0e 94 b0 1c 	call	0x3960	; 0x3960 <cos>
    1146:	6d 87       	std	Y+13, r22	; 0x0d
    1148:	7e 87       	std	Y+14, r23	; 0x0e
    114a:	8f 87       	std	Y+15, r24	; 0x0f
    114c:	98 8b       	std	Y+16, r25	; 0x10
    114e:	c7 01       	movw	r24, r14
    1150:	b6 01       	movw	r22, r12
    1152:	0e 94 3d 1f 	call	0x3e7a	; 0x3e7a <sin>
    1156:	69 87       	std	Y+9, r22	; 0x09
    1158:	7a 87       	std	Y+10, r23	; 0x0a
    115a:	8b 87       	std	Y+11, r24	; 0x0b
    115c:	9c 87       	std	Y+12, r25	; 0x0c
    115e:	a0 90 58 02 	lds	r10, 0x0258
    1162:	b0 90 59 02 	lds	r11, 0x0259
    1166:	80 e0       	ldi	r24, 0x00	; 0
    1168:	99 e0       	ldi	r25, 0x09	; 9
    116a:	a8 9e       	mul	r10, r24
    116c:	b0 01       	movw	r22, r0
    116e:	a9 9e       	mul	r10, r25
    1170:	70 0d       	add	r23, r0
    1172:	b8 9e       	mul	r11, r24
    1174:	70 0d       	add	r23, r0
    1176:	11 24       	eor	r1, r1
    1178:	80 91 cc 07 	lds	r24, 0x07CC
    117c:	90 91 cd 07 	lds	r25, 0x07CD
    1180:	68 0f       	add	r22, r24
    1182:	79 1f       	adc	r23, r25
    1184:	88 27       	eor	r24, r24
    1186:	77 fd       	sbrc	r23, 7
    1188:	80 95       	com	r24
    118a:	98 2f       	mov	r25, r24
    118c:	0e 94 49 1d 	call	0x3a92	; 0x3a92 <__floatsisf>
    1190:	20 e0       	ldi	r18, 0x00	; 0
    1192:	38 e9       	ldi	r19, 0x98	; 152
    1194:	4e e9       	ldi	r20, 0x9E	; 158
    1196:	55 e4       	ldi	r21, 0x45	; 69
    1198:	0e 94 b3 1c 	call	0x3966	; 0x3966 <__divsf3>
    119c:	6b 01       	movw	r12, r22
    119e:	7c 01       	movw	r14, r24
    11a0:	b5 01       	movw	r22, r10
    11a2:	88 27       	eor	r24, r24
    11a4:	77 fd       	sbrc	r23, 7
    11a6:	80 95       	com	r24
    11a8:	98 2f       	mov	r25, r24
    11aa:	0e 94 49 1d 	call	0x3a92	; 0x3a92 <__floatsisf>
    11ae:	20 e0       	ldi	r18, 0x00	; 0
    11b0:	30 e0       	ldi	r19, 0x00	; 0
    11b2:	40 e0       	ldi	r20, 0x00	; 0
    11b4:	5f e3       	ldi	r21, 0x3F	; 63
    11b6:	0e 94 8e 1e 	call	0x3d1c	; 0x3d1c <__mulsf3>
    11ba:	9b 01       	movw	r18, r22
    11bc:	ac 01       	movw	r20, r24
    11be:	c7 01       	movw	r24, r14
    11c0:	b6 01       	movw	r22, r12
    11c2:	0e 94 ce 1b 	call	0x379c	; 0x379c <__subsf3>
    11c6:	2b 01       	movw	r4, r22
    11c8:	3c 01       	movw	r6, r24
    11ca:	60 93 c4 07 	sts	0x07C4, r22
    11ce:	70 93 c5 07 	sts	0x07C5, r23
    11d2:	80 93 c6 07 	sts	0x07C6, r24
    11d6:	90 93 c7 07 	sts	0x07C7, r25
    11da:	a0 90 5a 02 	lds	r10, 0x025A
    11de:	b0 90 5b 02 	lds	r11, 0x025B
    11e2:	82 e9       	ldi	r24, 0x92	; 146
    11e4:	98 e0       	ldi	r25, 0x08	; 8
    11e6:	a8 9e       	mul	r10, r24
    11e8:	b0 01       	movw	r22, r0
    11ea:	a9 9e       	mul	r10, r25
    11ec:	70 0d       	add	r23, r0
    11ee:	b8 9e       	mul	r11, r24
    11f0:	70 0d       	add	r23, r0
    11f2:	11 24       	eor	r1, r1
    11f4:	80 91 ca 07 	lds	r24, 0x07CA
    11f8:	90 91 cb 07 	lds	r25, 0x07CB
    11fc:	68 0f       	add	r22, r24
    11fe:	79 1f       	adc	r23, r25
    1200:	88 27       	eor	r24, r24
    1202:	77 fd       	sbrc	r23, 7
    1204:	80 95       	com	r24
    1206:	98 2f       	mov	r25, r24
    1208:	0e 94 49 1d 	call	0x3a92	; 0x3a92 <__floatsisf>
    120c:	20 e0       	ldi	r18, 0x00	; 0
    120e:	30 ef       	ldi	r19, 0xF0	; 240
    1210:	4d e9       	ldi	r20, 0x9D	; 157
    1212:	55 e4       	ldi	r21, 0x45	; 69
    1214:	0e 94 b3 1c 	call	0x3966	; 0x3966 <__divsf3>
    1218:	6b 01       	movw	r12, r22
    121a:	7c 01       	movw	r14, r24
    121c:	b5 01       	movw	r22, r10
    121e:	88 27       	eor	r24, r24
    1220:	77 fd       	sbrc	r23, 7
    1222:	80 95       	com	r24
    1224:	98 2f       	mov	r25, r24
    1226:	0e 94 49 1d 	call	0x3a92	; 0x3a92 <__floatsisf>
    122a:	20 e0       	ldi	r18, 0x00	; 0
    122c:	30 e0       	ldi	r19, 0x00	; 0
    122e:	40 e0       	ldi	r20, 0x00	; 0
    1230:	5f e3       	ldi	r21, 0x3F	; 63
    1232:	0e 94 8e 1e 	call	0x3d1c	; 0x3d1c <__mulsf3>
    1236:	9b 01       	movw	r18, r22
    1238:	ac 01       	movw	r20, r24
    123a:	c7 01       	movw	r24, r14
    123c:	b6 01       	movw	r22, r12
    123e:	0e 94 ce 1b 	call	0x379c	; 0x379c <__subsf3>
    1242:	4b 01       	movw	r8, r22
    1244:	5c 01       	movw	r10, r24
    1246:	60 93 c0 07 	sts	0x07C0, r22
    124a:	70 93 c1 07 	sts	0x07C1, r23
    124e:	80 93 c2 07 	sts	0x07C2, r24
    1252:	90 93 c3 07 	sts	0x07C3, r25
    1256:	00 91 5c 02 	lds	r16, 0x025C
    125a:	10 91 5d 02 	lds	r17, 0x025D
    125e:	8c e6       	ldi	r24, 0x6C	; 108
    1260:	98 e0       	ldi	r25, 0x08	; 8
    1262:	08 9f       	mul	r16, r24
    1264:	b0 01       	movw	r22, r0
    1266:	09 9f       	mul	r16, r25
    1268:	70 0d       	add	r23, r0
    126a:	18 9f       	mul	r17, r24
    126c:	70 0d       	add	r23, r0
    126e:	11 24       	eor	r1, r1
    1270:	80 91 c8 07 	lds	r24, 0x07C8
    1274:	90 91 c9 07 	lds	r25, 0x07C9
    1278:	68 0f       	add	r22, r24
    127a:	79 1f       	adc	r23, r25
    127c:	88 27       	eor	r24, r24
    127e:	77 fd       	sbrc	r23, 7
    1280:	80 95       	com	r24
    1282:	98 2f       	mov	r25, r24
    1284:	0e 94 49 1d 	call	0x3a92	; 0x3a92 <__floatsisf>
    1288:	20 e0       	ldi	r18, 0x00	; 0
    128a:	38 e6       	ldi	r19, 0x68	; 104
    128c:	49 e9       	ldi	r20, 0x99	; 153
    128e:	55 e4       	ldi	r21, 0x45	; 69
    1290:	0e 94 b3 1c 	call	0x3966	; 0x3966 <__divsf3>
    1294:	6b 01       	movw	r12, r22
    1296:	7c 01       	movw	r14, r24
    1298:	b8 01       	movw	r22, r16
    129a:	88 27       	eor	r24, r24
    129c:	77 fd       	sbrc	r23, 7
    129e:	80 95       	com	r24
    12a0:	98 2f       	mov	r25, r24
    12a2:	0e 94 49 1d 	call	0x3a92	; 0x3a92 <__floatsisf>
    12a6:	20 e0       	ldi	r18, 0x00	; 0
    12a8:	30 e0       	ldi	r19, 0x00	; 0
    12aa:	40 e0       	ldi	r20, 0x00	; 0
    12ac:	5f e3       	ldi	r21, 0x3F	; 63
    12ae:	0e 94 8e 1e 	call	0x3d1c	; 0x3d1c <__mulsf3>
    12b2:	9b 01       	movw	r18, r22
    12b4:	ac 01       	movw	r20, r24
    12b6:	c7 01       	movw	r24, r14
    12b8:	b6 01       	movw	r22, r12
    12ba:	0e 94 ce 1b 	call	0x379c	; 0x379c <__subsf3>
    12be:	6b 01       	movw	r12, r22
    12c0:	7c 01       	movw	r14, r24
    12c2:	60 93 bc 07 	sts	0x07BC, r22
    12c6:	70 93 bd 07 	sts	0x07BD, r23
    12ca:	80 93 be 07 	sts	0x07BE, r24
    12ce:	90 93 bf 07 	sts	0x07BF, r25
    12d2:	2d 85       	ldd	r18, Y+13	; 0x0d
    12d4:	3e 85       	ldd	r19, Y+14	; 0x0e
    12d6:	4f 85       	ldd	r20, Y+15	; 0x0f
    12d8:	58 89       	ldd	r21, Y+16	; 0x10
    12da:	c3 01       	movw	r24, r6
    12dc:	b2 01       	movw	r22, r4
    12de:	0e 94 8e 1e 	call	0x3d1c	; 0x3d1c <__mulsf3>
    12e2:	2b 01       	movw	r4, r22
    12e4:	3c 01       	movw	r6, r24
    12e6:	2d 81       	ldd	r18, Y+5	; 0x05
    12e8:	3e 81       	ldd	r19, Y+6	; 0x06
    12ea:	4f 81       	ldd	r20, Y+7	; 0x07
    12ec:	58 85       	ldd	r21, Y+8	; 0x08
    12ee:	c5 01       	movw	r24, r10
    12f0:	b4 01       	movw	r22, r8
    12f2:	0e 94 8e 1e 	call	0x3d1c	; 0x3d1c <__mulsf3>
    12f6:	29 85       	ldd	r18, Y+9	; 0x09
    12f8:	3a 85       	ldd	r19, Y+10	; 0x0a
    12fa:	4b 85       	ldd	r20, Y+11	; 0x0b
    12fc:	5c 85       	ldd	r21, Y+12	; 0x0c
    12fe:	0e 94 8e 1e 	call	0x3d1c	; 0x3d1c <__mulsf3>
    1302:	9b 01       	movw	r18, r22
    1304:	ac 01       	movw	r20, r24
    1306:	c3 01       	movw	r24, r6
    1308:	b2 01       	movw	r22, r4
    130a:	0e 94 cf 1b 	call	0x379e	; 0x379e <__addsf3>
    130e:	2b 01       	movw	r4, r22
    1310:	3c 01       	movw	r6, r24
    1312:	29 81       	ldd	r18, Y+1	; 0x01
    1314:	3a 81       	ldd	r19, Y+2	; 0x02
    1316:	4b 81       	ldd	r20, Y+3	; 0x03
    1318:	5c 81       	ldd	r21, Y+4	; 0x04
    131a:	c7 01       	movw	r24, r14
    131c:	b6 01       	movw	r22, r12
    131e:	0e 94 8e 1e 	call	0x3d1c	; 0x3d1c <__mulsf3>
    1322:	29 85       	ldd	r18, Y+9	; 0x09
    1324:	3a 85       	ldd	r19, Y+10	; 0x0a
    1326:	4b 85       	ldd	r20, Y+11	; 0x0b
    1328:	5c 85       	ldd	r21, Y+12	; 0x0c
    132a:	0e 94 8e 1e 	call	0x3d1c	; 0x3d1c <__mulsf3>
    132e:	9b 01       	movw	r18, r22
    1330:	ac 01       	movw	r20, r24
    1332:	c3 01       	movw	r24, r6
    1334:	b2 01       	movw	r22, r4
    1336:	0e 94 cf 1b 	call	0x379e	; 0x379e <__addsf3>
    133a:	2b 01       	movw	r4, r22
    133c:	3c 01       	movw	r6, r24
    133e:	29 81       	ldd	r18, Y+1	; 0x01
    1340:	3a 81       	ldd	r19, Y+2	; 0x02
    1342:	4b 81       	ldd	r20, Y+3	; 0x03
    1344:	5c 81       	ldd	r21, Y+4	; 0x04
    1346:	c5 01       	movw	r24, r10
    1348:	b4 01       	movw	r22, r8
    134a:	0e 94 8e 1e 	call	0x3d1c	; 0x3d1c <__mulsf3>
    134e:	4b 01       	movw	r8, r22
    1350:	5c 01       	movw	r10, r24
    1352:	2d 81       	ldd	r18, Y+5	; 0x05
    1354:	3e 81       	ldd	r19, Y+6	; 0x06
    1356:	4f 81       	ldd	r20, Y+7	; 0x07
    1358:	58 85       	ldd	r21, Y+8	; 0x08
    135a:	c7 01       	movw	r24, r14
    135c:	b6 01       	movw	r22, r12
    135e:	0e 94 8e 1e 	call	0x3d1c	; 0x3d1c <__mulsf3>
    1362:	9b 01       	movw	r18, r22
    1364:	ac 01       	movw	r20, r24
    1366:	c5 01       	movw	r24, r10
    1368:	b4 01       	movw	r22, r8
    136a:	0e 94 ce 1b 	call	0x379c	; 0x379c <__subsf3>
    136e:	90 58       	subi	r25, 0x80	; 128
    1370:	a3 01       	movw	r20, r6
    1372:	92 01       	movw	r18, r4
    1374:	0e 94 59 1c 	call	0x38b2	; 0x38b2 <atan2>
    1378:	60 93 b8 07 	sts	0x07B8, r22
    137c:	70 93 b9 07 	sts	0x07B9, r23
    1380:	80 93 ba 07 	sts	0x07BA, r24
    1384:	90 93 bb 07 	sts	0x07BB, r25
    1388:	60 96       	adiw	r28, 0x10	; 16
    138a:	0f b6       	in	r0, 0x3f	; 63
    138c:	f8 94       	cli
    138e:	de bf       	out	0x3e, r29	; 62
    1390:	0f be       	out	0x3f, r0	; 63
    1392:	cd bf       	out	0x3d, r28	; 61
    1394:	df 91       	pop	r29
    1396:	cf 91       	pop	r28
    1398:	1f 91       	pop	r17
    139a:	0f 91       	pop	r16
    139c:	ff 90       	pop	r15
    139e:	ef 90       	pop	r14
    13a0:	df 90       	pop	r13
    13a2:	cf 90       	pop	r12
    13a4:	bf 90       	pop	r11
    13a6:	af 90       	pop	r10
    13a8:	9f 90       	pop	r9
    13aa:	8f 90       	pop	r8
    13ac:	7f 90       	pop	r7
    13ae:	6f 90       	pop	r6
    13b0:	5f 90       	pop	r5
    13b2:	4f 90       	pop	r4
    13b4:	08 95       	ret

000013b6 <_Z12readIRSensorv>:
    13b6:	86 e3       	ldi	r24, 0x36	; 54
    13b8:	0e 94 9d 25 	call	0x4b3a	; 0x4b3a <analogRead>
    13bc:	bc 01       	movw	r22, r24
    13be:	88 27       	eor	r24, r24
    13c0:	77 fd       	sbrc	r23, 7
    13c2:	80 95       	com	r24
    13c4:	98 2f       	mov	r25, r24
    13c6:	0e 94 49 1d 	call	0x3a92	; 0x3a92 <__floatsisf>
    13ca:	20 e0       	ldi	r18, 0x00	; 0
    13cc:	30 e0       	ldi	r19, 0x00	; 0
    13ce:	40 ea       	ldi	r20, 0xA0	; 160
    13d0:	5b e3       	ldi	r21, 0x3B	; 59
    13d2:	0e 94 8e 1e 	call	0x3d1c	; 0x3d1c <__mulsf3>
    13d6:	60 93 fc 07 	sts	0x07FC, r22
    13da:	70 93 fd 07 	sts	0x07FD, r23
    13de:	80 93 fe 07 	sts	0x07FE, r24
    13e2:	90 93 ff 07 	sts	0x07FF, r25
    13e6:	28 e4       	ldi	r18, 0x48	; 72
    13e8:	31 ee       	ldi	r19, 0xE1	; 225
    13ea:	4a e9       	ldi	r20, 0x9A	; 154
    13ec:	5f eb       	ldi	r21, 0xBF	; 191
    13ee:	0e 94 f1 1e 	call	0x3de2	; 0x3de2 <pow>
    13f2:	21 e7       	ldi	r18, 0x71	; 113
    13f4:	3d e3       	ldi	r19, 0x3D	; 61
    13f6:	48 e5       	ldi	r20, 0x58	; 88
    13f8:	52 e4       	ldi	r21, 0x42	; 66
    13fa:	0e 94 8e 1e 	call	0x3d1c	; 0x3d1c <__mulsf3>
    13fe:	0e 94 1b 1d 	call	0x3a36	; 0x3a36 <__fixunssfsi>
    1402:	70 93 fb 07 	sts	0x07FB, r23
    1406:	60 93 fa 07 	sts	0x07FA, r22
    140a:	08 95       	ret

0000140c <_GLOBAL__sub_I_SENSOR_SIGN>:
    140c:	2c e2       	ldi	r18, 0x2C	; 44
    140e:	31 e0       	ldi	r19, 0x01	; 1
    1410:	47 e1       	ldi	r20, 0x17	; 23
    1412:	66 e1       	ldi	r22, 0x16	; 22
    1414:	80 e0       	ldi	r24, 0x00	; 0
    1416:	98 e0       	ldi	r25, 0x08	; 8
    1418:	0e 94 d7 13 	call	0x27ae	; 0x27ae <_ZN7NewPingC1Ehhj>
    141c:	2c e2       	ldi	r18, 0x2C	; 44
    141e:	31 e0       	ldi	r19, 0x01	; 1
    1420:	49 e1       	ldi	r20, 0x19	; 25
    1422:	68 e1       	ldi	r22, 0x18	; 24
    1424:	82 e1       	ldi	r24, 0x12	; 18
    1426:	98 e0       	ldi	r25, 0x08	; 8
    1428:	0e 94 d7 13 	call	0x27ae	; 0x27ae <_ZN7NewPingC1Ehhj>
    142c:	2c e2       	ldi	r18, 0x2C	; 44
    142e:	31 e0       	ldi	r19, 0x01	; 1
    1430:	4b e1       	ldi	r20, 0x1B	; 27
    1432:	6a e1       	ldi	r22, 0x1A	; 26
    1434:	84 e2       	ldi	r24, 0x24	; 36
    1436:	98 e0       	ldi	r25, 0x08	; 8
    1438:	0e 94 d7 13 	call	0x27ae	; 0x27ae <_ZN7NewPingC1Ehhj>
    143c:	2c e2       	ldi	r18, 0x2C	; 44
    143e:	31 e0       	ldi	r19, 0x01	; 1
    1440:	4d e1       	ldi	r20, 0x1D	; 29
    1442:	6c e1       	ldi	r22, 0x1C	; 28
    1444:	86 e3       	ldi	r24, 0x36	; 54
    1446:	98 e0       	ldi	r25, 0x08	; 8
    1448:	0e 94 d7 13 	call	0x27ae	; 0x27ae <_ZN7NewPingC1Ehhj>
    144c:	2c e2       	ldi	r18, 0x2C	; 44
    144e:	31 e0       	ldi	r19, 0x01	; 1
    1450:	4f e1       	ldi	r20, 0x1F	; 31
    1452:	6e e1       	ldi	r22, 0x1E	; 30
    1454:	88 e4       	ldi	r24, 0x48	; 72
    1456:	98 e0       	ldi	r25, 0x08	; 8
    1458:	0e 94 d7 13 	call	0x27ae	; 0x27ae <_ZN7NewPingC1Ehhj>
    145c:	8a e1       	ldi	r24, 0x1A	; 26
    145e:	97 e0       	ldi	r25, 0x07	; 7
    1460:	d3 d1       	rcall	.+934    	; 0x1808 <_ZN3L3GC1Ev>
    1462:	84 ef       	ldi	r24, 0xF4	; 244
    1464:	96 e0       	ldi	r25, 0x06	; 6
    1466:	bc c3       	rjmp	.+1912   	; 0x1be0 <_ZN6LSM303C1Ev>

00001468 <_Z10debugPrintPKc>:
    1468:	bc 01       	movw	r22, r24
    146a:	8b eb       	ldi	r24, 0xBB	; 187
    146c:	9f e0       	ldi	r25, 0x0F	; 15
    146e:	0e 94 87 24 	call	0x490e	; 0x490e <_ZN5Print7printlnEPKc>
    1472:	8b eb       	ldi	r24, 0xBB	; 187
    1474:	9f e0       	ldi	r25, 0x0F	; 15
    1476:	0c 94 ce 20 	jmp	0x419c	; 0x419c <_ZN14HardwareSerial5flushEv>

0000147a <_Z7dprintfPKcz>:
    147a:	cf 93       	push	r28
    147c:	df 93       	push	r29
    147e:	cd b7       	in	r28, 0x3d	; 61
    1480:	de b7       	in	r29, 0x3e	; 62
    1482:	fe 01       	movw	r30, r28
    1484:	36 96       	adiw	r30, 0x06	; 6
    1486:	61 91       	ld	r22, Z+
    1488:	71 91       	ld	r23, Z+
    148a:	af 01       	movw	r20, r30
    148c:	84 ef       	ldi	r24, 0xF4	; 244
    148e:	92 e0       	ldi	r25, 0x02	; 2
    1490:	0e 94 ff 26 	call	0x4dfe	; 0x4dfe <vsprintf>
    1494:	84 ef       	ldi	r24, 0xF4	; 244
    1496:	92 e0       	ldi	r25, 0x02	; 2
    1498:	e7 df       	rcall	.-50     	; 0x1468 <_Z10debugPrintPKc>
    149a:	df 91       	pop	r29
    149c:	cf 91       	pop	r28
    149e:	08 95       	ret

000014a0 <_Z9printdatav>:
    14a0:	8a e7       	ldi	r24, 0x7A	; 122
    14a2:	92 e0       	ldi	r25, 0x02	; 2
    14a4:	9f 93       	push	r25
    14a6:	8f 93       	push	r24
    14a8:	e8 df       	rcall	.-48     	; 0x147a <_Z7dprintfPKcz>
    14aa:	84 ef       	ldi	r24, 0xF4	; 244
    14ac:	96 e0       	ldi	r25, 0x06	; 6
    14ae:	af d6       	rcall	.+3422   	; 0x220e <_ZN6LSM3037headingEv>
    14b0:	9f 93       	push	r25
    14b2:	8f 93       	push	r24
    14b4:	7f 93       	push	r23
    14b6:	6f 93       	push	r22
    14b8:	21 ee       	ldi	r18, 0xE1	; 225
    14ba:	3e e2       	ldi	r19, 0x2E	; 46
    14bc:	45 e6       	ldi	r20, 0x65	; 101
    14be:	52 e4       	ldi	r21, 0x42	; 66
    14c0:	60 91 64 07 	lds	r22, 0x0764
    14c4:	70 91 65 07 	lds	r23, 0x0765
    14c8:	80 91 66 07 	lds	r24, 0x0766
    14cc:	90 91 67 07 	lds	r25, 0x0767
    14d0:	0e 94 8e 1e 	call	0x3d1c	; 0x3d1c <__mulsf3>
    14d4:	9f 93       	push	r25
    14d6:	8f 93       	push	r24
    14d8:	7f 93       	push	r23
    14da:	6f 93       	push	r22
    14dc:	21 ee       	ldi	r18, 0xE1	; 225
    14de:	3e e2       	ldi	r19, 0x2E	; 46
    14e0:	45 e6       	ldi	r20, 0x65	; 101
    14e2:	52 e4       	ldi	r21, 0x42	; 66
    14e4:	60 91 68 07 	lds	r22, 0x0768
    14e8:	70 91 69 07 	lds	r23, 0x0769
    14ec:	80 91 6a 07 	lds	r24, 0x076A
    14f0:	90 91 6b 07 	lds	r25, 0x076B
    14f4:	0e 94 8e 1e 	call	0x3d1c	; 0x3d1c <__mulsf3>
    14f8:	9f 93       	push	r25
    14fa:	8f 93       	push	r24
    14fc:	7f 93       	push	r23
    14fe:	6f 93       	push	r22
    1500:	21 ee       	ldi	r18, 0xE1	; 225
    1502:	3e e2       	ldi	r19, 0x2E	; 46
    1504:	45 e6       	ldi	r20, 0x65	; 101
    1506:	52 e4       	ldi	r21, 0x42	; 66
    1508:	60 91 6c 07 	lds	r22, 0x076C
    150c:	70 91 6d 07 	lds	r23, 0x076D
    1510:	80 91 6e 07 	lds	r24, 0x076E
    1514:	90 91 6f 07 	lds	r25, 0x076F
    1518:	0e 94 8e 1e 	call	0x3d1c	; 0x3d1c <__mulsf3>
    151c:	9f 93       	push	r25
    151e:	8f 93       	push	r24
    1520:	7f 93       	push	r23
    1522:	6f 93       	push	r22
    1524:	8c e7       	ldi	r24, 0x7C	; 124
    1526:	92 e0       	ldi	r25, 0x02	; 2
    1528:	9f 93       	push	r25
    152a:	8f 93       	push	r24
    152c:	a6 df       	rcall	.-180    	; 0x147a <_Z7dprintfPKcz>
    152e:	8d b7       	in	r24, 0x3d	; 61
    1530:	9e b7       	in	r25, 0x3e	; 62
    1532:	44 96       	adiw	r24, 0x14	; 20
    1534:	0f b6       	in	r0, 0x3f	; 63
    1536:	f8 94       	cli
    1538:	9e bf       	out	0x3e, r25	; 62
    153a:	0f be       	out	0x3f, r0	; 63
    153c:	8d bf       	out	0x3d, r24	; 61
    153e:	08 95       	ret

00001540 <_Z5task2Pv>:
    1540:	8e e9       	ldi	r24, 0x9E	; 158
    1542:	92 e0       	ldi	r25, 0x02	; 2
    1544:	9f 93       	push	r25
    1546:	8f 93       	push	r24
    1548:	98 df       	rcall	.-208    	; 0x147a <_Z7dprintfPKcz>
    154a:	0f 90       	pop	r0
    154c:	0f 90       	pop	r0
    154e:	84 e6       	ldi	r24, 0x64	; 100
    1550:	90 e0       	ldi	r25, 0x00	; 0
    1552:	0e 94 63 18 	call	0x30c6	; 0x30c6 <vTaskDelay>
    1556:	2f df       	rcall	.-418    	; 0x13b6 <_Z12readIRSensorv>
    1558:	0e 94 e1 24 	call	0x49c2	; 0x49c2 <millis>
    155c:	00 91 f6 07 	lds	r16, 0x07F6
    1560:	10 91 f7 07 	lds	r17, 0x07F7
    1564:	20 91 f8 07 	lds	r18, 0x07F8
    1568:	30 91 f9 07 	lds	r19, 0x07F9
    156c:	60 1b       	sub	r22, r16
    156e:	71 0b       	sbc	r23, r17
    1570:	82 0b       	sbc	r24, r18
    1572:	93 0b       	sbc	r25, r19
    1574:	62 33       	cpi	r22, 0x32	; 50
    1576:	71 05       	cpc	r23, r1
    1578:	81 05       	cpc	r24, r1
    157a:	91 05       	cpc	r25, r1
    157c:	40 f3       	brcs	.-48     	; 0x154e <_Z5task2Pv+0xe>
    157e:	80 91 4a 07 	lds	r24, 0x074A
    1582:	90 91 4b 07 	lds	r25, 0x074B
    1586:	01 96       	adiw	r24, 0x01	; 1
    1588:	90 93 4b 07 	sts	0x074B, r25
    158c:	80 93 4a 07 	sts	0x074A, r24
    1590:	00 93 f2 07 	sts	0x07F2, r16
    1594:	10 93 f3 07 	sts	0x07F3, r17
    1598:	20 93 f4 07 	sts	0x07F4, r18
    159c:	30 93 f5 07 	sts	0x07F5, r19
    15a0:	0e 94 e1 24 	call	0x49c2	; 0x49c2 <millis>
    15a4:	60 93 f6 07 	sts	0x07F6, r22
    15a8:	70 93 f7 07 	sts	0x07F7, r23
    15ac:	80 93 f8 07 	sts	0x07F8, r24
    15b0:	90 93 f9 07 	sts	0x07F9, r25
    15b4:	00 91 f2 07 	lds	r16, 0x07F2
    15b8:	10 91 f3 07 	lds	r17, 0x07F3
    15bc:	20 91 f4 07 	lds	r18, 0x07F4
    15c0:	30 91 f5 07 	lds	r19, 0x07F5
    15c4:	06 17       	cp	r16, r22
    15c6:	17 07       	cpc	r17, r23
    15c8:	28 07       	cpc	r18, r24
    15ca:	39 07       	cpc	r19, r25
    15cc:	ac f4       	brge	.+42     	; 0x15f8 <_Z5task2Pv+0xb8>
    15ce:	60 1b       	sub	r22, r16
    15d0:	71 0b       	sbc	r23, r17
    15d2:	82 0b       	sbc	r24, r18
    15d4:	93 0b       	sbc	r25, r19
    15d6:	0e 94 49 1d 	call	0x3a92	; 0x3a92 <__floatsisf>
    15da:	20 e0       	ldi	r18, 0x00	; 0
    15dc:	30 e0       	ldi	r19, 0x00	; 0
    15de:	4a e7       	ldi	r20, 0x7A	; 122
    15e0:	54 e4       	ldi	r21, 0x44	; 68
    15e2:	0e 94 b3 1c 	call	0x3966	; 0x3966 <__divsf3>
    15e6:	60 93 48 02 	sts	0x0248, r22
    15ea:	70 93 49 02 	sts	0x0249, r23
    15ee:	80 93 4a 02 	sts	0x024A, r24
    15f2:	90 93 4b 02 	sts	0x024B, r25
    15f6:	08 c0       	rjmp	.+16     	; 0x1608 <_Z5task2Pv+0xc8>
    15f8:	10 92 48 02 	sts	0x0248, r1
    15fc:	10 92 49 02 	sts	0x0249, r1
    1600:	10 92 4a 02 	sts	0x024A, r1
    1604:	10 92 4b 02 	sts	0x024B, r1
    1608:	88 d8       	rcall	.-3824   	; 0x71a <_Z9Read_Gyrov>
    160a:	fe d8       	rcall	.-3588   	; 0x808 <_Z10Read_Accelv>
    160c:	80 91 4a 07 	lds	r24, 0x074A
    1610:	90 91 4b 07 	lds	r25, 0x074B
    1614:	06 97       	sbiw	r24, 0x06	; 6
    1616:	30 f0       	brcs	.+12     	; 0x1624 <_Z5task2Pv+0xe4>
    1618:	10 92 4b 07 	sts	0x074B, r1
    161c:	10 92 4a 07 	sts	0x074A, r1
    1620:	5e d9       	rcall	.-3396   	; 0x8de <_Z12Read_Compassv>
    1622:	55 dd       	rcall	.-1366   	; 0x10ce <_Z15Compass_Headingv>
    1624:	87 db       	rcall	.-2290   	; 0xd34 <_Z13Matrix_updatev>
    1626:	99 d9       	rcall	.-3278   	; 0x95a <_Z9Normalizev>
    1628:	37 da       	rcall	.-2962   	; 0xa98 <_Z16Drift_correctionv>
    162a:	07 dd       	rcall	.-1522   	; 0x103a <_Z12Euler_anglesv>
    162c:	39 df       	rcall	.-398    	; 0x14a0 <_Z9printdatav>
    162e:	8f cf       	rjmp	.-226    	; 0x154e <_Z5task2Pv+0xe>

00001630 <setup>:
    1630:	0f 93       	push	r16
    1632:	1f 93       	push	r17
    1634:	cf 93       	push	r28
    1636:	df 93       	push	r29
    1638:	40 e0       	ldi	r20, 0x00	; 0
    163a:	52 ec       	ldi	r21, 0xC2	; 194
    163c:	61 e0       	ldi	r22, 0x01	; 1
    163e:	70 e0       	ldi	r23, 0x00	; 0
    1640:	8b eb       	ldi	r24, 0xBB	; 187
    1642:	9f e0       	ldi	r25, 0x0F	; 15
    1644:	0e 94 df 22 	call	0x45be	; 0x45be <_ZN14HardwareSerial5beginEm>
    1648:	61 e0       	ldi	r22, 0x01	; 1
    164a:	8d e0       	ldi	r24, 0x0D	; 13
    164c:	0e 94 21 26 	call	0x4c42	; 0x4c42 <pinMode>
    1650:	4a d8       	rcall	.-3948   	; 0x6e6 <_Z8I2C_Initv>
    1652:	89 ea       	ldi	r24, 0xA9	; 169
    1654:	92 e0       	ldi	r25, 0x02	; 2
    1656:	9f 93       	push	r25
    1658:	8f 93       	push	r24
    165a:	0f df       	rcall	.-482    	; 0x147a <_Z7dprintfPKcz>
    165c:	ba d8       	rcall	.-3724   	; 0x7d2 <_Z10Accel_Initv>
    165e:	47 d8       	rcall	.-3954   	; 0x6ee <_Z9Gyro_Initv>
    1660:	64 e1       	ldi	r22, 0x14	; 20
    1662:	70 e0       	ldi	r23, 0x00	; 0
    1664:	80 e0       	ldi	r24, 0x00	; 0
    1666:	90 e0       	ldi	r25, 0x00	; 0
    1668:	0e 94 13 25 	call	0x4a26	; 0x4a26 <delay>
    166c:	0f 90       	pop	r0
    166e:	0f 90       	pop	r0
    1670:	c0 e2       	ldi	r28, 0x20	; 32
    1672:	d0 e0       	ldi	r29, 0x00	; 0
    1674:	52 d8       	rcall	.-3932   	; 0x71a <_Z9Read_Gyrov>
    1676:	c8 d8       	rcall	.-3696   	; 0x808 <_Z10Read_Accelv>
    1678:	e6 ee       	ldi	r30, 0xE6	; 230
    167a:	f7 e0       	ldi	r31, 0x07	; 7
    167c:	aa ed       	ldi	r26, 0xDA	; 218
    167e:	b7 e0       	ldi	r27, 0x07	; 7
    1680:	21 91       	ld	r18, Z+
    1682:	31 91       	ld	r19, Z+
    1684:	8d 91       	ld	r24, X+
    1686:	9c 91       	ld	r25, X
    1688:	11 97       	sbiw	r26, 0x01	; 1
    168a:	82 0f       	add	r24, r18
    168c:	93 1f       	adc	r25, r19
    168e:	8d 93       	st	X+, r24
    1690:	9d 93       	st	X+, r25
    1692:	87 e0       	ldi	r24, 0x07	; 7
    1694:	e2 3f       	cpi	r30, 0xF2	; 242
    1696:	f8 07       	cpc	r31, r24
    1698:	99 f7       	brne	.-26     	; 0x1680 <setup+0x50>
    169a:	64 e1       	ldi	r22, 0x14	; 20
    169c:	70 e0       	ldi	r23, 0x00	; 0
    169e:	80 e0       	ldi	r24, 0x00	; 0
    16a0:	90 e0       	ldi	r25, 0x00	; 0
    16a2:	0e 94 13 25 	call	0x4a26	; 0x4a26 <delay>
    16a6:	21 97       	sbiw	r28, 0x01	; 1
    16a8:	20 97       	sbiw	r28, 0x00	; 0
    16aa:	21 f7       	brne	.-56     	; 0x1674 <setup+0x44>
    16ac:	ea ed       	ldi	r30, 0xDA	; 218
    16ae:	f7 e0       	ldi	r31, 0x07	; 7
    16b0:	80 81       	ld	r24, Z
    16b2:	91 81       	ldd	r25, Z+1	; 0x01
    16b4:	97 fd       	sbrc	r25, 7
    16b6:	4f 96       	adiw	r24, 0x1f	; 31
    16b8:	d5 e0       	ldi	r29, 0x05	; 5
    16ba:	95 95       	asr	r25
    16bc:	87 95       	ror	r24
    16be:	da 95       	dec	r29
    16c0:	e1 f7       	brne	.-8      	; 0x16ba <setup+0x8a>
    16c2:	81 93       	st	Z+, r24
    16c4:	91 93       	st	Z+, r25
    16c6:	87 e0       	ldi	r24, 0x07	; 7
    16c8:	e6 3e       	cpi	r30, 0xE6	; 230
    16ca:	f8 07       	cpc	r31, r24
    16cc:	89 f7       	brne	.-30     	; 0x16b0 <setup+0x80>
    16ce:	80 91 56 02 	lds	r24, 0x0256
    16d2:	18 2f       	mov	r17, r24
    16d4:	00 e0       	ldi	r16, 0x00	; 0
    16d6:	80 91 e4 07 	lds	r24, 0x07E4
    16da:	90 91 e5 07 	lds	r25, 0x07E5
    16de:	80 1b       	sub	r24, r16
    16e0:	91 0b       	sbc	r25, r17
    16e2:	90 93 e5 07 	sts	0x07E5, r25
    16e6:	80 93 e4 07 	sts	0x07E4, r24
    16ea:	60 ed       	ldi	r22, 0xD0	; 208
    16ec:	77 e0       	ldi	r23, 0x07	; 7
    16ee:	80 e0       	ldi	r24, 0x00	; 0
    16f0:	90 e0       	ldi	r25, 0x00	; 0
    16f2:	0e 94 13 25 	call	0x4a26	; 0x4a26 <delay>
    16f6:	61 e0       	ldi	r22, 0x01	; 1
    16f8:	8d e0       	ldi	r24, 0x0D	; 13
    16fa:	0e 94 5f 26 	call	0x4cbe	; 0x4cbe <digitalWrite>
    16fe:	0e 94 e1 24 	call	0x49c2	; 0x49c2 <millis>
    1702:	60 93 f6 07 	sts	0x07F6, r22
    1706:	70 93 f7 07 	sts	0x07F7, r23
    170a:	80 93 f8 07 	sts	0x07F8, r24
    170e:	90 93 f9 07 	sts	0x07F9, r25
    1712:	64 e1       	ldi	r22, 0x14	; 20
    1714:	70 e0       	ldi	r23, 0x00	; 0
    1716:	80 e0       	ldi	r24, 0x00	; 0
    1718:	90 e0       	ldi	r25, 0x00	; 0
    171a:	0e 94 13 25 	call	0x4a26	; 0x4a26 <delay>
    171e:	10 92 4b 07 	sts	0x074B, r1
    1722:	10 92 4a 07 	sts	0x074A, r1
    1726:	8c ea       	ldi	r24, 0xAC	; 172
    1728:	92 e0       	ldi	r25, 0x02	; 2
    172a:	9f 93       	push	r25
    172c:	8f 93       	push	r24
    172e:	a5 de       	rcall	.-694    	; 0x147a <_Z7dprintfPKcz>
    1730:	0f 90       	pop	r0
    1732:	0f 90       	pop	r0
    1734:	df 91       	pop	r29
    1736:	cf 91       	pop	r28
    1738:	1f 91       	pop	r17
    173a:	0f 91       	pop	r16
    173c:	08 95       	ret

0000173e <main>:
    173e:	af 92       	push	r10
    1740:	bf 92       	push	r11
    1742:	cf 92       	push	r12
    1744:	df 92       	push	r13
    1746:	ef 92       	push	r14
    1748:	ff 92       	push	r15
    174a:	0f 93       	push	r16
    174c:	cf 93       	push	r28
    174e:	df 93       	push	r29
    1750:	1f 92       	push	r1
    1752:	1f 92       	push	r1
    1754:	cd b7       	in	r28, 0x3d	; 61
    1756:	de b7       	in	r29, 0x3e	; 62
    1758:	0e 94 3b 25 	call	0x4a76	; 0x4a76 <init>
    175c:	69 df       	rcall	.-302    	; 0x1630 <setup>
    175e:	a1 2c       	mov	r10, r1
    1760:	b1 2c       	mov	r11, r1
    1762:	c1 2c       	mov	r12, r1
    1764:	d1 2c       	mov	r13, r1
    1766:	ce 01       	movw	r24, r28
    1768:	01 96       	adiw	r24, 0x01	; 1
    176a:	7c 01       	movw	r14, r24
    176c:	05 e0       	ldi	r16, 0x05	; 5
    176e:	20 e0       	ldi	r18, 0x00	; 0
    1770:	30 e0       	ldi	r19, 0x00	; 0
    1772:	40 e8       	ldi	r20, 0x80	; 128
    1774:	50 e0       	ldi	r21, 0x00	; 0
    1776:	6f ea       	ldi	r22, 0xAF	; 175
    1778:	72 e0       	ldi	r23, 0x02	; 2
    177a:	80 ea       	ldi	r24, 0xA0	; 160
    177c:	9a e0       	ldi	r25, 0x0A	; 10
    177e:	0e 94 1c 16 	call	0x2c38	; 0x2c38 <xTaskGenericCreate>
    1782:	0e 94 10 17 	call	0x2e20	; 0x2e20 <vTaskStartScheduler>
    1786:	80 e0       	ldi	r24, 0x00	; 0
    1788:	90 e0       	ldi	r25, 0x00	; 0
    178a:	0f 90       	pop	r0
    178c:	0f 90       	pop	r0
    178e:	df 91       	pop	r29
    1790:	cf 91       	pop	r28
    1792:	0f 91       	pop	r16
    1794:	ff 90       	pop	r15
    1796:	ef 90       	pop	r14
    1798:	df 90       	pop	r13
    179a:	cf 90       	pop	r12
    179c:	bf 90       	pop	r11
    179e:	af 90       	pop	r10
    17a0:	08 95       	ret

000017a2 <pvPortMalloc>:
    17a2:	cf 93       	push	r28
    17a4:	df 93       	push	r29
    17a6:	ec 01       	movw	r28, r24
    17a8:	0e 94 40 17 	call	0x2e80	; 0x2e80 <vTaskSuspendAll>
    17ac:	80 91 5a 08 	lds	r24, 0x085A
    17b0:	90 91 5b 08 	lds	r25, 0x085B
    17b4:	89 2b       	or	r24, r25
    17b6:	31 f4       	brne	.+12     	; 0x17c4 <pvPortMalloc+0x22>
    17b8:	8f e5       	ldi	r24, 0x5F	; 95
    17ba:	98 e0       	ldi	r25, 0x08	; 8
    17bc:	90 93 5b 08 	sts	0x085B, r25
    17c0:	80 93 5a 08 	sts	0x085A, r24
    17c4:	20 91 5c 08 	lds	r18, 0x085C
    17c8:	30 91 5d 08 	lds	r19, 0x085D
    17cc:	ce 01       	movw	r24, r28
    17ce:	82 0f       	add	r24, r18
    17d0:	93 1f       	adc	r25, r19
    17d2:	8b 3d       	cpi	r24, 0xDB	; 219
    17d4:	45 e0       	ldi	r20, 0x05	; 5
    17d6:	94 07       	cpc	r25, r20
    17d8:	70 f4       	brcc	.+28     	; 0x17f6 <pvPortMalloc+0x54>
    17da:	28 17       	cp	r18, r24
    17dc:	39 07       	cpc	r19, r25
    17de:	58 f4       	brcc	.+22     	; 0x17f6 <pvPortMalloc+0x54>
    17e0:	c0 91 5a 08 	lds	r28, 0x085A
    17e4:	d0 91 5b 08 	lds	r29, 0x085B
    17e8:	c2 0f       	add	r28, r18
    17ea:	d3 1f       	adc	r29, r19
    17ec:	90 93 5d 08 	sts	0x085D, r25
    17f0:	80 93 5c 08 	sts	0x085C, r24
    17f4:	02 c0       	rjmp	.+4      	; 0x17fa <pvPortMalloc+0x58>
    17f6:	c0 e0       	ldi	r28, 0x00	; 0
    17f8:	d0 e0       	ldi	r29, 0x00	; 0
    17fa:	0e 94 f5 17 	call	0x2fea	; 0x2fea <xTaskResumeAll>
    17fe:	ce 01       	movw	r24, r28
    1800:	df 91       	pop	r29
    1802:	cf 91       	pop	r28
    1804:	08 95       	ret

00001806 <vPortFree>:
    1806:	08 95       	ret

00001808 <_ZN3L3GC1Ev>:
    1808:	fc 01       	movw	r30, r24
    180a:	83 e0       	ldi	r24, 0x03	; 3
    180c:	87 83       	std	Z+7, r24	; 0x07
    180e:	12 86       	std	Z+10, r1	; 0x0a
    1810:	11 86       	std	Z+9, r1	; 0x09
    1812:	13 86       	std	Z+11, r1	; 0x0b
    1814:	08 95       	ret

00001816 <_ZN3L3G8writeRegEhh>:
    1816:	ef 92       	push	r14
    1818:	ff 92       	push	r15
    181a:	1f 93       	push	r17
    181c:	cf 93       	push	r28
    181e:	df 93       	push	r29
    1820:	1f 92       	push	r1
    1822:	cd b7       	in	r28, 0x3d	; 61
    1824:	de b7       	in	r29, 0x3e	; 62
    1826:	7c 01       	movw	r14, r24
    1828:	16 2f       	mov	r17, r22
    182a:	fc 01       	movw	r30, r24
    182c:	60 85       	ldd	r22, Z+8	; 0x08
    182e:	83 e0       	ldi	r24, 0x03	; 3
    1830:	9f e0       	ldi	r25, 0x0F	; 15
    1832:	49 83       	std	Y+1, r20	; 0x01
    1834:	0e 94 ad 1b 	call	0x375a	; 0x375a <_ZN7TwoWire17beginTransmissionEh>
    1838:	61 2f       	mov	r22, r17
    183a:	83 e0       	ldi	r24, 0x03	; 3
    183c:	9f e0       	ldi	r25, 0x0F	; 15
    183e:	0e 94 58 1b 	call	0x36b0	; 0x36b0 <_ZN7TwoWire5writeEh>
    1842:	49 81       	ldd	r20, Y+1	; 0x01
    1844:	64 2f       	mov	r22, r20
    1846:	83 e0       	ldi	r24, 0x03	; 3
    1848:	9f e0       	ldi	r25, 0x0F	; 15
    184a:	0e 94 58 1b 	call	0x36b0	; 0x36b0 <_ZN7TwoWire5writeEh>
    184e:	83 e0       	ldi	r24, 0x03	; 3
    1850:	9f e0       	ldi	r25, 0x0F	; 15
    1852:	0e 94 c9 1b 	call	0x3792	; 0x3792 <_ZN7TwoWire15endTransmissionEv>
    1856:	f7 01       	movw	r30, r14
    1858:	86 83       	std	Z+6, r24	; 0x06
    185a:	0f 90       	pop	r0
    185c:	df 91       	pop	r29
    185e:	cf 91       	pop	r28
    1860:	1f 91       	pop	r17
    1862:	ff 90       	pop	r15
    1864:	ef 90       	pop	r14
    1866:	08 95       	ret

00001868 <_ZN3L3G13enableDefaultEv>:
    1868:	cf 93       	push	r28
    186a:	df 93       	push	r29
    186c:	ec 01       	movw	r28, r24
    186e:	8f 81       	ldd	r24, Y+7	; 0x07
    1870:	82 30       	cpi	r24, 0x02	; 2
    1872:	21 f4       	brne	.+8      	; 0x187c <_ZN3L3G13enableDefaultEv+0x14>
    1874:	40 e0       	ldi	r20, 0x00	; 0
    1876:	69 e3       	ldi	r22, 0x39	; 57
    1878:	ce 01       	movw	r24, r28
    187a:	cd df       	rcall	.-102    	; 0x1816 <_ZN3L3G8writeRegEhh>
    187c:	40 e0       	ldi	r20, 0x00	; 0
    187e:	63 e2       	ldi	r22, 0x23	; 35
    1880:	ce 01       	movw	r24, r28
    1882:	c9 df       	rcall	.-110    	; 0x1816 <_ZN3L3G8writeRegEhh>
    1884:	4f e6       	ldi	r20, 0x6F	; 111
    1886:	60 e2       	ldi	r22, 0x20	; 32
    1888:	ce 01       	movw	r24, r28
    188a:	df 91       	pop	r29
    188c:	cf 91       	pop	r28
    188e:	c3 cf       	rjmp	.-122    	; 0x1816 <_ZN3L3G8writeRegEhh>

00001890 <_ZN3L3G4readEv>:
    1890:	9f 92       	push	r9
    1892:	af 92       	push	r10
    1894:	bf 92       	push	r11
    1896:	cf 92       	push	r12
    1898:	df 92       	push	r13
    189a:	ef 92       	push	r14
    189c:	ff 92       	push	r15
    189e:	0f 93       	push	r16
    18a0:	1f 93       	push	r17
    18a2:	cf 93       	push	r28
    18a4:	df 93       	push	r29
    18a6:	ec 01       	movw	r28, r24
    18a8:	68 85       	ldd	r22, Y+8	; 0x08
    18aa:	83 e0       	ldi	r24, 0x03	; 3
    18ac:	9f e0       	ldi	r25, 0x0F	; 15
    18ae:	0e 94 ad 1b 	call	0x375a	; 0x375a <_ZN7TwoWire17beginTransmissionEh>
    18b2:	e0 91 03 0f 	lds	r30, 0x0F03
    18b6:	f0 91 04 0f 	lds	r31, 0x0F04
    18ba:	01 90       	ld	r0, Z+
    18bc:	f0 81       	ld	r31, Z
    18be:	e0 2d       	mov	r30, r0
    18c0:	68 ea       	ldi	r22, 0xA8	; 168
    18c2:	83 e0       	ldi	r24, 0x03	; 3
    18c4:	9f e0       	ldi	r25, 0x0F	; 15
    18c6:	19 95       	eicall
    18c8:	83 e0       	ldi	r24, 0x03	; 3
    18ca:	9f e0       	ldi	r25, 0x0F	; 15
    18cc:	0e 94 c9 1b 	call	0x3792	; 0x3792 <_ZN7TwoWire15endTransmissionEv>
    18d0:	46 e0       	ldi	r20, 0x06	; 6
    18d2:	68 85       	ldd	r22, Y+8	; 0x08
    18d4:	83 e0       	ldi	r24, 0x03	; 3
    18d6:	9f e0       	ldi	r25, 0x0F	; 15
    18d8:	0e 94 ab 1b 	call	0x3756	; 0x3756 <_ZN7TwoWire11requestFromEhh>
    18dc:	0e 94 e1 24 	call	0x49c2	; 0x49c2 <millis>
    18e0:	7b 01       	movw	r14, r22
    18e2:	83 e0       	ldi	r24, 0x03	; 3
    18e4:	9f e0       	ldi	r25, 0x0F	; 15
    18e6:	0e 94 01 1b 	call	0x3602	; 0x3602 <_ZN7TwoWire9availableEv>
    18ea:	06 97       	sbiw	r24, 0x06	; 6
    18ec:	84 f4       	brge	.+32     	; 0x190e <_ZN3L3G4readEv+0x7e>
    18ee:	89 85       	ldd	r24, Y+9	; 0x09
    18f0:	9a 85       	ldd	r25, Y+10	; 0x0a
    18f2:	89 2b       	or	r24, r25
    18f4:	b1 f3       	breq	.-20     	; 0x18e2 <_ZN3L3G4readEv+0x52>
    18f6:	0e 94 e1 24 	call	0x49c2	; 0x49c2 <millis>
    18fa:	6e 19       	sub	r22, r14
    18fc:	7f 09       	sbc	r23, r15
    18fe:	89 85       	ldd	r24, Y+9	; 0x09
    1900:	9a 85       	ldd	r25, Y+10	; 0x0a
    1902:	86 17       	cp	r24, r22
    1904:	97 07       	cpc	r25, r23
    1906:	68 f7       	brcc	.-38     	; 0x18e2 <_ZN3L3G4readEv+0x52>
    1908:	81 e0       	ldi	r24, 0x01	; 1
    190a:	8b 87       	std	Y+11, r24	; 0x0b
    190c:	2c c0       	rjmp	.+88     	; 0x1966 <_ZN3L3G4readEv+0xd6>
    190e:	83 e0       	ldi	r24, 0x03	; 3
    1910:	9f e0       	ldi	r25, 0x0F	; 15
    1912:	0e 94 09 1b 	call	0x3612	; 0x3612 <_ZN7TwoWire4readEv>
    1916:	a8 2e       	mov	r10, r24
    1918:	83 e0       	ldi	r24, 0x03	; 3
    191a:	9f e0       	ldi	r25, 0x0F	; 15
    191c:	0e 94 09 1b 	call	0x3612	; 0x3612 <_ZN7TwoWire4readEv>
    1920:	98 2e       	mov	r9, r24
    1922:	83 e0       	ldi	r24, 0x03	; 3
    1924:	9f e0       	ldi	r25, 0x0F	; 15
    1926:	0e 94 09 1b 	call	0x3612	; 0x3612 <_ZN7TwoWire4readEv>
    192a:	e8 2e       	mov	r14, r24
    192c:	83 e0       	ldi	r24, 0x03	; 3
    192e:	9f e0       	ldi	r25, 0x0F	; 15
    1930:	0e 94 09 1b 	call	0x3612	; 0x3612 <_ZN7TwoWire4readEv>
    1934:	b8 2e       	mov	r11, r24
    1936:	83 e0       	ldi	r24, 0x03	; 3
    1938:	9f e0       	ldi	r25, 0x0F	; 15
    193a:	0e 94 09 1b 	call	0x3612	; 0x3612 <_ZN7TwoWire4readEv>
    193e:	f8 2e       	mov	r15, r24
    1940:	83 e0       	ldi	r24, 0x03	; 3
    1942:	9f e0       	ldi	r25, 0x0F	; 15
    1944:	0e 94 09 1b 	call	0x3612	; 0x3612 <_ZN7TwoWire4readEv>
    1948:	d9 2c       	mov	r13, r9
    194a:	c1 2c       	mov	r12, r1
    194c:	ca 28       	or	r12, r10
    194e:	d9 82       	std	Y+1, r13	; 0x01
    1950:	c8 82       	st	Y, r12
    1952:	1b 2d       	mov	r17, r11
    1954:	00 e0       	ldi	r16, 0x00	; 0
    1956:	0e 29       	or	r16, r14
    1958:	1b 83       	std	Y+3, r17	; 0x03
    195a:	0a 83       	std	Y+2, r16	; 0x02
    195c:	98 2f       	mov	r25, r24
    195e:	88 27       	eor	r24, r24
    1960:	8f 29       	or	r24, r15
    1962:	9d 83       	std	Y+5, r25	; 0x05
    1964:	8c 83       	std	Y+4, r24	; 0x04
    1966:	df 91       	pop	r29
    1968:	cf 91       	pop	r28
    196a:	1f 91       	pop	r17
    196c:	0f 91       	pop	r16
    196e:	ff 90       	pop	r15
    1970:	ef 90       	pop	r14
    1972:	df 90       	pop	r13
    1974:	cf 90       	pop	r12
    1976:	bf 90       	pop	r11
    1978:	af 90       	pop	r10
    197a:	9f 90       	pop	r9
    197c:	08 95       	ret

0000197e <_ZN3L3G7testRegEhNS_7regAddrE>:
    197e:	1f 93       	push	r17
    1980:	cf 93       	push	r28
    1982:	df 93       	push	r29
    1984:	1f 92       	push	r1
    1986:	cd b7       	in	r28, 0x3d	; 61
    1988:	de b7       	in	r29, 0x3e	; 62
    198a:	16 2f       	mov	r17, r22
    198c:	83 e0       	ldi	r24, 0x03	; 3
    198e:	9f e0       	ldi	r25, 0x0F	; 15
    1990:	49 83       	std	Y+1, r20	; 0x01
    1992:	0e 94 ad 1b 	call	0x375a	; 0x375a <_ZN7TwoWire17beginTransmissionEh>
    1996:	49 81       	ldd	r20, Y+1	; 0x01
    1998:	64 2f       	mov	r22, r20
    199a:	83 e0       	ldi	r24, 0x03	; 3
    199c:	9f e0       	ldi	r25, 0x0F	; 15
    199e:	0e 94 58 1b 	call	0x36b0	; 0x36b0 <_ZN7TwoWire5writeEh>
    19a2:	83 e0       	ldi	r24, 0x03	; 3
    19a4:	9f e0       	ldi	r25, 0x0F	; 15
    19a6:	0e 94 c9 1b 	call	0x3792	; 0x3792 <_ZN7TwoWire15endTransmissionEv>
    19aa:	81 11       	cpse	r24, r1
    19ac:	14 c0       	rjmp	.+40     	; 0x19d6 <_ZN3L3G7testRegEhNS_7regAddrE+0x58>
    19ae:	41 e0       	ldi	r20, 0x01	; 1
    19b0:	61 2f       	mov	r22, r17
    19b2:	83 e0       	ldi	r24, 0x03	; 3
    19b4:	9f e0       	ldi	r25, 0x0F	; 15
    19b6:	0e 94 ab 1b 	call	0x3756	; 0x3756 <_ZN7TwoWire11requestFromEhh>
    19ba:	83 e0       	ldi	r24, 0x03	; 3
    19bc:	9f e0       	ldi	r25, 0x0F	; 15
    19be:	0e 94 01 1b 	call	0x3602	; 0x3602 <_ZN7TwoWire9availableEv>
    19c2:	89 2b       	or	r24, r25
    19c4:	41 f0       	breq	.+16     	; 0x19d6 <_ZN3L3G7testRegEhNS_7regAddrE+0x58>
    19c6:	83 e0       	ldi	r24, 0x03	; 3
    19c8:	9f e0       	ldi	r25, 0x0F	; 15
    19ca:	0f 90       	pop	r0
    19cc:	df 91       	pop	r29
    19ce:	cf 91       	pop	r28
    19d0:	1f 91       	pop	r17
    19d2:	0c 94 09 1b 	jmp	0x3612	; 0x3612 <_ZN7TwoWire4readEv>
    19d6:	8f ef       	ldi	r24, 0xFF	; 255
    19d8:	9f ef       	ldi	r25, 0xFF	; 255
    19da:	0f 90       	pop	r0
    19dc:	df 91       	pop	r29
    19de:	cf 91       	pop	r28
    19e0:	1f 91       	pop	r17
    19e2:	08 95       	ret

000019e4 <_ZN3L3G4initENS_10deviceTypeENS_8sa0StateE>:
    19e4:	0f 93       	push	r16
    19e6:	1f 93       	push	r17
    19e8:	cf 93       	push	r28
    19ea:	df 93       	push	r29
    19ec:	ec 01       	movw	r28, r24
    19ee:	16 2f       	mov	r17, r22
    19f0:	04 2f       	mov	r16, r20
    19f2:	63 30       	cpi	r22, 0x03	; 3
    19f4:	19 f0       	breq	.+6      	; 0x19fc <_ZN3L3G4initENS_10deviceTypeENS_8sa0StateE+0x18>
    19f6:	42 30       	cpi	r20, 0x02	; 2
    19f8:	09 f0       	breq	.+2      	; 0x19fc <_ZN3L3G4initENS_10deviceTypeENS_8sa0StateE+0x18>
    19fa:	3e c0       	rjmp	.+124    	; 0x1a78 <_ZN3L3G4initENS_10deviceTypeENS_8sa0StateE+0x94>
    19fc:	8f ef       	ldi	r24, 0xFF	; 255
    19fe:	81 0f       	add	r24, r17
    1a00:	83 30       	cpi	r24, 0x03	; 3
    1a02:	e0 f4       	brcc	.+56     	; 0x1a3c <_ZN3L3G4initENS_10deviceTypeENS_8sa0StateE+0x58>
    1a04:	00 23       	and	r16, r16
    1a06:	61 f0       	breq	.+24     	; 0x1a20 <_ZN3L3G4initENS_10deviceTypeENS_8sa0StateE+0x3c>
    1a08:	4f e0       	ldi	r20, 0x0F	; 15
    1a0a:	6b e6       	ldi	r22, 0x6B	; 107
    1a0c:	ce 01       	movw	r24, r28
    1a0e:	b7 df       	rcall	.-146    	; 0x197e <_ZN3L3G7testRegEhNS_7regAddrE>
    1a10:	8f 3f       	cpi	r24, 0xFF	; 255
    1a12:	2f ef       	ldi	r18, 0xFF	; 255
    1a14:	92 07       	cpc	r25, r18
    1a16:	11 f0       	breq	.+4      	; 0x1a1c <_ZN3L3G4initENS_10deviceTypeENS_8sa0StateE+0x38>
    1a18:	01 e0       	ldi	r16, 0x01	; 1
    1a1a:	0e c0       	rjmp	.+28     	; 0x1a38 <_ZN3L3G4initENS_10deviceTypeENS_8sa0StateE+0x54>
    1a1c:	01 30       	cpi	r16, 0x01	; 1
    1a1e:	41 f0       	breq	.+16     	; 0x1a30 <_ZN3L3G4initENS_10deviceTypeENS_8sa0StateE+0x4c>
    1a20:	4f e0       	ldi	r20, 0x0F	; 15
    1a22:	6a e6       	ldi	r22, 0x6A	; 106
    1a24:	ce 01       	movw	r24, r28
    1a26:	ab df       	rcall	.-170    	; 0x197e <_ZN3L3G7testRegEhNS_7regAddrE>
    1a28:	8f 3f       	cpi	r24, 0xFF	; 255
    1a2a:	2f ef       	ldi	r18, 0xFF	; 255
    1a2c:	92 07       	cpc	r25, r18
    1a2e:	19 f4       	brne	.+6      	; 0x1a36 <_ZN3L3G4initENS_10deviceTypeENS_8sa0StateE+0x52>
    1a30:	13 30       	cpi	r17, 0x03	; 3
    1a32:	31 f0       	breq	.+12     	; 0x1a40 <_ZN3L3G4initENS_10deviceTypeENS_8sa0StateE+0x5c>
    1a34:	19 c0       	rjmp	.+50     	; 0x1a68 <_ZN3L3G4initENS_10deviceTypeENS_8sa0StateE+0x84>
    1a36:	00 e0       	ldi	r16, 0x00	; 0
    1a38:	13 30       	cpi	r17, 0x03	; 3
    1a3a:	d1 f0       	breq	.+52     	; 0x1a70 <_ZN3L3G4initENS_10deviceTypeENS_8sa0StateE+0x8c>
    1a3c:	11 11       	cpse	r17, r1
    1a3e:	14 c0       	rjmp	.+40     	; 0x1a68 <_ZN3L3G4initENS_10deviceTypeENS_8sa0StateE+0x84>
    1a40:	00 23       	and	r16, r16
    1a42:	49 f0       	breq	.+18     	; 0x1a56 <_ZN3L3G4initENS_10deviceTypeENS_8sa0StateE+0x72>
    1a44:	4f e0       	ldi	r20, 0x0F	; 15
    1a46:	69 e6       	ldi	r22, 0x69	; 105
    1a48:	ce 01       	movw	r24, r28
    1a4a:	99 df       	rcall	.-206    	; 0x197e <_ZN3L3G7testRegEhNS_7regAddrE>
    1a4c:	83 3d       	cpi	r24, 0xD3	; 211
    1a4e:	91 05       	cpc	r25, r1
    1a50:	41 f1       	breq	.+80     	; 0x1aa2 <_ZN3L3G4initENS_10deviceTypeENS_8sa0StateE+0xbe>
    1a52:	01 30       	cpi	r16, 0x01	; 1
    1a54:	39 f0       	breq	.+14     	; 0x1a64 <_ZN3L3G4initENS_10deviceTypeENS_8sa0StateE+0x80>
    1a56:	4f e0       	ldi	r20, 0x0F	; 15
    1a58:	68 e6       	ldi	r22, 0x68	; 104
    1a5a:	ce 01       	movw	r24, r28
    1a5c:	90 df       	rcall	.-224    	; 0x197e <_ZN3L3G7testRegEhNS_7regAddrE>
    1a5e:	83 3d       	cpi	r24, 0xD3	; 211
    1a60:	91 05       	cpc	r25, r1
    1a62:	09 f1       	breq	.+66     	; 0x1aa6 <_ZN3L3G4initENS_10deviceTypeENS_8sa0StateE+0xc2>
    1a64:	13 30       	cpi	r17, 0x03	; 3
    1a66:	11 f0       	breq	.+4      	; 0x1a6c <_ZN3L3G4initENS_10deviceTypeENS_8sa0StateE+0x88>
    1a68:	02 30       	cpi	r16, 0x02	; 2
    1a6a:	31 f4       	brne	.+12     	; 0x1a78 <_ZN3L3G4initENS_10deviceTypeENS_8sa0StateE+0x94>
    1a6c:	80 e0       	ldi	r24, 0x00	; 0
    1a6e:	1e c0       	rjmp	.+60     	; 0x1aac <_ZN3L3G4initENS_10deviceTypeENS_8sa0StateE+0xc8>
    1a70:	87 3d       	cpi	r24, 0xD7	; 215
    1a72:	91 05       	cpc	r25, r1
    1a74:	a1 f4       	brne	.+40     	; 0x1a9e <_ZN3L3G4initENS_10deviceTypeENS_8sa0StateE+0xba>
    1a76:	12 e0       	ldi	r17, 0x02	; 2
    1a78:	1f 83       	std	Y+7, r17	; 0x07
    1a7a:	11 23       	and	r17, r17
    1a7c:	41 f0       	breq	.+16     	; 0x1a8e <_ZN3L3G4initENS_10deviceTypeENS_8sa0StateE+0xaa>
    1a7e:	13 30       	cpi	r17, 0x03	; 3
    1a80:	60 f4       	brcc	.+24     	; 0x1a9a <_ZN3L3G4initENS_10deviceTypeENS_8sa0StateE+0xb6>
    1a82:	01 30       	cpi	r16, 0x01	; 1
    1a84:	11 f4       	brne	.+4      	; 0x1a8a <_ZN3L3G4initENS_10deviceTypeENS_8sa0StateE+0xa6>
    1a86:	8b e6       	ldi	r24, 0x6B	; 107
    1a88:	07 c0       	rjmp	.+14     	; 0x1a98 <_ZN3L3G4initENS_10deviceTypeENS_8sa0StateE+0xb4>
    1a8a:	8a e6       	ldi	r24, 0x6A	; 106
    1a8c:	05 c0       	rjmp	.+10     	; 0x1a98 <_ZN3L3G4initENS_10deviceTypeENS_8sa0StateE+0xb4>
    1a8e:	01 30       	cpi	r16, 0x01	; 1
    1a90:	11 f4       	brne	.+4      	; 0x1a96 <_ZN3L3G4initENS_10deviceTypeENS_8sa0StateE+0xb2>
    1a92:	89 e6       	ldi	r24, 0x69	; 105
    1a94:	01 c0       	rjmp	.+2      	; 0x1a98 <_ZN3L3G4initENS_10deviceTypeENS_8sa0StateE+0xb4>
    1a96:	88 e6       	ldi	r24, 0x68	; 104
    1a98:	88 87       	std	Y+8, r24	; 0x08
    1a9a:	81 e0       	ldi	r24, 0x01	; 1
    1a9c:	07 c0       	rjmp	.+14     	; 0x1aac <_ZN3L3G4initENS_10deviceTypeENS_8sa0StateE+0xc8>
    1a9e:	11 e0       	ldi	r17, 0x01	; 1
    1aa0:	eb cf       	rjmp	.-42     	; 0x1a78 <_ZN3L3G4initENS_10deviceTypeENS_8sa0StateE+0x94>
    1aa2:	01 e0       	ldi	r16, 0x01	; 1
    1aa4:	01 c0       	rjmp	.+2      	; 0x1aa8 <_ZN3L3G4initENS_10deviceTypeENS_8sa0StateE+0xc4>
    1aa6:	00 e0       	ldi	r16, 0x00	; 0
    1aa8:	10 e0       	ldi	r17, 0x00	; 0
    1aaa:	e6 cf       	rjmp	.-52     	; 0x1a78 <_ZN3L3G4initENS_10deviceTypeENS_8sa0StateE+0x94>
    1aac:	df 91       	pop	r29
    1aae:	cf 91       	pop	r28
    1ab0:	1f 91       	pop	r17
    1ab2:	0f 91       	pop	r16
    1ab4:	08 95       	ret

00001ab6 <vListInitialise>:
    1ab6:	fc 01       	movw	r30, r24
    1ab8:	03 96       	adiw	r24, 0x03	; 3
    1aba:	92 83       	std	Z+2, r25	; 0x02
    1abc:	81 83       	std	Z+1, r24	; 0x01
    1abe:	2f ef       	ldi	r18, 0xFF	; 255
    1ac0:	3f ef       	ldi	r19, 0xFF	; 255
    1ac2:	34 83       	std	Z+4, r19	; 0x04
    1ac4:	23 83       	std	Z+3, r18	; 0x03
    1ac6:	96 83       	std	Z+6, r25	; 0x06
    1ac8:	85 83       	std	Z+5, r24	; 0x05
    1aca:	90 87       	std	Z+8, r25	; 0x08
    1acc:	87 83       	std	Z+7, r24	; 0x07
    1ace:	10 82       	st	Z, r1
    1ad0:	08 95       	ret

00001ad2 <vListInitialiseItem>:
    1ad2:	fc 01       	movw	r30, r24
    1ad4:	11 86       	std	Z+9, r1	; 0x09
    1ad6:	10 86       	std	Z+8, r1	; 0x08
    1ad8:	08 95       	ret

00001ada <vListInsertEnd>:
    1ada:	cf 93       	push	r28
    1adc:	df 93       	push	r29
    1ade:	9c 01       	movw	r18, r24
    1ae0:	fb 01       	movw	r30, r22
    1ae2:	dc 01       	movw	r26, r24
    1ae4:	11 96       	adiw	r26, 0x01	; 1
    1ae6:	cd 91       	ld	r28, X+
    1ae8:	dc 91       	ld	r29, X
    1aea:	12 97       	sbiw	r26, 0x02	; 2
    1aec:	d3 83       	std	Z+3, r29	; 0x03
    1aee:	c2 83       	std	Z+2, r28	; 0x02
    1af0:	8c 81       	ldd	r24, Y+4	; 0x04
    1af2:	9d 81       	ldd	r25, Y+5	; 0x05
    1af4:	95 83       	std	Z+5, r25	; 0x05
    1af6:	84 83       	std	Z+4, r24	; 0x04
    1af8:	8c 81       	ldd	r24, Y+4	; 0x04
    1afa:	9d 81       	ldd	r25, Y+5	; 0x05
    1afc:	dc 01       	movw	r26, r24
    1afe:	13 96       	adiw	r26, 0x03	; 3
    1b00:	7c 93       	st	X, r23
    1b02:	6e 93       	st	-X, r22
    1b04:	12 97       	sbiw	r26, 0x02	; 2
    1b06:	7d 83       	std	Y+5, r23	; 0x05
    1b08:	6c 83       	std	Y+4, r22	; 0x04
    1b0a:	31 87       	std	Z+9, r19	; 0x09
    1b0c:	20 87       	std	Z+8, r18	; 0x08
    1b0e:	f9 01       	movw	r30, r18
    1b10:	80 81       	ld	r24, Z
    1b12:	8f 5f       	subi	r24, 0xFF	; 255
    1b14:	80 83       	st	Z, r24
    1b16:	df 91       	pop	r29
    1b18:	cf 91       	pop	r28
    1b1a:	08 95       	ret

00001b1c <vListInsert>:
    1b1c:	0f 93       	push	r16
    1b1e:	1f 93       	push	r17
    1b20:	cf 93       	push	r28
    1b22:	df 93       	push	r29
    1b24:	8c 01       	movw	r16, r24
    1b26:	fb 01       	movw	r30, r22
    1b28:	20 81       	ld	r18, Z
    1b2a:	31 81       	ldd	r19, Z+1	; 0x01
    1b2c:	2f 3f       	cpi	r18, 0xFF	; 255
    1b2e:	8f ef       	ldi	r24, 0xFF	; 255
    1b30:	38 07       	cpc	r19, r24
    1b32:	21 f4       	brne	.+8      	; 0x1b3c <vListInsert+0x20>
    1b34:	e8 01       	movw	r28, r16
    1b36:	af 81       	ldd	r26, Y+7	; 0x07
    1b38:	b8 85       	ldd	r27, Y+8	; 0x08
    1b3a:	0e c0       	rjmp	.+28     	; 0x1b58 <vListInsert+0x3c>
    1b3c:	d8 01       	movw	r26, r16
    1b3e:	13 96       	adiw	r26, 0x03	; 3
    1b40:	12 96       	adiw	r26, 0x02	; 2
    1b42:	8d 91       	ld	r24, X+
    1b44:	9c 91       	ld	r25, X
    1b46:	13 97       	sbiw	r26, 0x03	; 3
    1b48:	ec 01       	movw	r28, r24
    1b4a:	48 81       	ld	r20, Y
    1b4c:	59 81       	ldd	r21, Y+1	; 0x01
    1b4e:	24 17       	cp	r18, r20
    1b50:	35 07       	cpc	r19, r21
    1b52:	10 f0       	brcs	.+4      	; 0x1b58 <vListInsert+0x3c>
    1b54:	dc 01       	movw	r26, r24
    1b56:	f4 cf       	rjmp	.-24     	; 0x1b40 <vListInsert+0x24>
    1b58:	12 96       	adiw	r26, 0x02	; 2
    1b5a:	8d 91       	ld	r24, X+
    1b5c:	9c 91       	ld	r25, X
    1b5e:	13 97       	sbiw	r26, 0x03	; 3
    1b60:	93 83       	std	Z+3, r25	; 0x03
    1b62:	82 83       	std	Z+2, r24	; 0x02
    1b64:	ec 01       	movw	r28, r24
    1b66:	fd 83       	std	Y+5, r31	; 0x05
    1b68:	ec 83       	std	Y+4, r30	; 0x04
    1b6a:	b5 83       	std	Z+5, r27	; 0x05
    1b6c:	a4 83       	std	Z+4, r26	; 0x04
    1b6e:	13 96       	adiw	r26, 0x03	; 3
    1b70:	fc 93       	st	X, r31
    1b72:	ee 93       	st	-X, r30
    1b74:	12 97       	sbiw	r26, 0x02	; 2
    1b76:	11 87       	std	Z+9, r17	; 0x09
    1b78:	00 87       	std	Z+8, r16	; 0x08
    1b7a:	f8 01       	movw	r30, r16
    1b7c:	80 81       	ld	r24, Z
    1b7e:	8f 5f       	subi	r24, 0xFF	; 255
    1b80:	80 83       	st	Z, r24
    1b82:	df 91       	pop	r29
    1b84:	cf 91       	pop	r28
    1b86:	1f 91       	pop	r17
    1b88:	0f 91       	pop	r16
    1b8a:	08 95       	ret

00001b8c <uxListRemove>:
    1b8c:	cf 93       	push	r28
    1b8e:	df 93       	push	r29
    1b90:	fc 01       	movw	r30, r24
    1b92:	a0 85       	ldd	r26, Z+8	; 0x08
    1b94:	b1 85       	ldd	r27, Z+9	; 0x09
    1b96:	82 81       	ldd	r24, Z+2	; 0x02
    1b98:	93 81       	ldd	r25, Z+3	; 0x03
    1b9a:	24 81       	ldd	r18, Z+4	; 0x04
    1b9c:	35 81       	ldd	r19, Z+5	; 0x05
    1b9e:	ec 01       	movw	r28, r24
    1ba0:	3d 83       	std	Y+5, r19	; 0x05
    1ba2:	2c 83       	std	Y+4, r18	; 0x04
    1ba4:	c4 81       	ldd	r28, Z+4	; 0x04
    1ba6:	d5 81       	ldd	r29, Z+5	; 0x05
    1ba8:	9b 83       	std	Y+3, r25	; 0x03
    1baa:	8a 83       	std	Y+2, r24	; 0x02
    1bac:	11 96       	adiw	r26, 0x01	; 1
    1bae:	8d 91       	ld	r24, X+
    1bb0:	9c 91       	ld	r25, X
    1bb2:	12 97       	sbiw	r26, 0x02	; 2
    1bb4:	8e 17       	cp	r24, r30
    1bb6:	9f 07       	cpc	r25, r31
    1bb8:	21 f4       	brne	.+8      	; 0x1bc2 <uxListRemove+0x36>
    1bba:	12 96       	adiw	r26, 0x02	; 2
    1bbc:	dc 93       	st	X, r29
    1bbe:	ce 93       	st	-X, r28
    1bc0:	11 97       	sbiw	r26, 0x01	; 1
    1bc2:	11 86       	std	Z+9, r1	; 0x09
    1bc4:	10 86       	std	Z+8, r1	; 0x08
    1bc6:	8c 91       	ld	r24, X
    1bc8:	81 50       	subi	r24, 0x01	; 1
    1bca:	8c 93       	st	X, r24
    1bcc:	df 91       	pop	r29
    1bce:	cf 91       	pop	r28
    1bd0:	08 95       	ret

00001bd2 <_ZN7TwoWire5writeEi>:
    1bd2:	dc 01       	movw	r26, r24
    1bd4:	ed 91       	ld	r30, X+
    1bd6:	fc 91       	ld	r31, X
    1bd8:	01 90       	ld	r0, Z+
    1bda:	f0 81       	ld	r31, Z
    1bdc:	e0 2d       	mov	r30, r0
    1bde:	19 94       	eijmp

00001be0 <_ZN6LSM303C1Ev>:
    1be0:	cf 93       	push	r28
    1be2:	df 93       	push	r29
    1be4:	ec 01       	movw	r28, r24
    1be6:	86 e0       	ldi	r24, 0x06	; 6
    1be8:	e1 e6       	ldi	r30, 0x61	; 97
    1bea:	f2 e0       	ldi	r31, 0x02	; 2
    1bec:	de 01       	movw	r26, r28
    1bee:	52 96       	adiw	r26, 0x12	; 18
    1bf0:	01 90       	ld	r0, Z+
    1bf2:	0d 92       	st	X+, r0
    1bf4:	8a 95       	dec	r24
    1bf6:	e1 f7       	brne	.-8      	; 0x1bf0 <_ZN6LSM303C1Ev+0x10>
    1bf8:	86 e0       	ldi	r24, 0x06	; 6
    1bfa:	e7 e6       	ldi	r30, 0x67	; 103
    1bfc:	f2 e0       	ldi	r31, 0x02	; 2
    1bfe:	de 01       	movw	r26, r28
    1c00:	1c 96       	adiw	r26, 0x0c	; 12
    1c02:	01 90       	ld	r0, Z+
    1c04:	0d 92       	st	X+, r0
    1c06:	8a 95       	dec	r24
    1c08:	e1 f7       	brne	.-8      	; 0x1c02 <_ZN6LSM303C1Ev+0x22>
    1c0a:	84 e0       	ldi	r24, 0x04	; 4
    1c0c:	89 8f       	std	Y+25, r24	; 0x19
    1c0e:	1c a2       	std	Y+36, r1	; 0x24
    1c10:	1b a2       	std	Y+35, r1	; 0x23
    1c12:	1d a2       	std	Y+37, r1	; 0x25
    1c14:	df 91       	pop	r29
    1c16:	cf 91       	pop	r28
    1c18:	08 95       	ret

00001c1a <_ZN6LSM30316vector_normalizeEPNS_6vectorIfEE>:
    1c1a:	4f 92       	push	r4
    1c1c:	5f 92       	push	r5
    1c1e:	6f 92       	push	r6
    1c20:	7f 92       	push	r7
    1c22:	8f 92       	push	r8
    1c24:	9f 92       	push	r9
    1c26:	af 92       	push	r10
    1c28:	bf 92       	push	r11
    1c2a:	cf 92       	push	r12
    1c2c:	df 92       	push	r13
    1c2e:	ef 92       	push	r14
    1c30:	ff 92       	push	r15
    1c32:	0f 93       	push	r16
    1c34:	1f 93       	push	r17
    1c36:	cf 93       	push	r28
    1c38:	df 93       	push	r29
    1c3a:	00 d0       	rcall	.+0      	; 0x1c3c <_ZN6LSM30316vector_normalizeEPNS_6vectorIfEE+0x22>
    1c3c:	1f 92       	push	r1
    1c3e:	cd b7       	in	r28, 0x3d	; 61
    1c40:	de b7       	in	r29, 0x3e	; 62
    1c42:	8c 01       	movw	r16, r24
    1c44:	dc 01       	movw	r26, r24
    1c46:	4d 90       	ld	r4, X+
    1c48:	5d 90       	ld	r5, X+
    1c4a:	6d 90       	ld	r6, X+
    1c4c:	7c 90       	ld	r7, X
    1c4e:	13 97       	sbiw	r26, 0x03	; 3
    1c50:	14 96       	adiw	r26, 0x04	; 4
    1c52:	8d 90       	ld	r8, X+
    1c54:	9d 90       	ld	r9, X+
    1c56:	ad 90       	ld	r10, X+
    1c58:	bc 90       	ld	r11, X
    1c5a:	17 97       	sbiw	r26, 0x07	; 7
    1c5c:	18 96       	adiw	r26, 0x08	; 8
    1c5e:	8d 91       	ld	r24, X+
    1c60:	9d 91       	ld	r25, X+
    1c62:	0d 90       	ld	r0, X+
    1c64:	bc 91       	ld	r27, X
    1c66:	a0 2d       	mov	r26, r0
    1c68:	89 83       	std	Y+1, r24	; 0x01
    1c6a:	9a 83       	std	Y+2, r25	; 0x02
    1c6c:	ab 83       	std	Y+3, r26	; 0x03
    1c6e:	bc 83       	std	Y+4, r27	; 0x04
    1c70:	a3 01       	movw	r20, r6
    1c72:	92 01       	movw	r18, r4
    1c74:	c3 01       	movw	r24, r6
    1c76:	b2 01       	movw	r22, r4
    1c78:	0e 94 8e 1e 	call	0x3d1c	; 0x3d1c <__mulsf3>
    1c7c:	6b 01       	movw	r12, r22
    1c7e:	7c 01       	movw	r14, r24
    1c80:	a5 01       	movw	r20, r10
    1c82:	94 01       	movw	r18, r8
    1c84:	c5 01       	movw	r24, r10
    1c86:	b4 01       	movw	r22, r8
    1c88:	0e 94 8e 1e 	call	0x3d1c	; 0x3d1c <__mulsf3>
    1c8c:	9b 01       	movw	r18, r22
    1c8e:	ac 01       	movw	r20, r24
    1c90:	c7 01       	movw	r24, r14
    1c92:	b6 01       	movw	r22, r12
    1c94:	0e 94 cf 1b 	call	0x379e	; 0x379e <__addsf3>
    1c98:	6b 01       	movw	r12, r22
    1c9a:	7c 01       	movw	r14, r24
    1c9c:	29 81       	ldd	r18, Y+1	; 0x01
    1c9e:	3a 81       	ldd	r19, Y+2	; 0x02
    1ca0:	4b 81       	ldd	r20, Y+3	; 0x03
    1ca2:	5c 81       	ldd	r21, Y+4	; 0x04
    1ca4:	ca 01       	movw	r24, r20
    1ca6:	b9 01       	movw	r22, r18
    1ca8:	0e 94 8e 1e 	call	0x3d1c	; 0x3d1c <__mulsf3>
    1cac:	9b 01       	movw	r18, r22
    1cae:	ac 01       	movw	r20, r24
    1cb0:	c7 01       	movw	r24, r14
    1cb2:	b6 01       	movw	r22, r12
    1cb4:	0e 94 cf 1b 	call	0x379e	; 0x379e <__addsf3>
    1cb8:	0e 94 47 1f 	call	0x3e8e	; 0x3e8e <sqrt>
    1cbc:	6b 01       	movw	r12, r22
    1cbe:	7c 01       	movw	r14, r24
    1cc0:	9b 01       	movw	r18, r22
    1cc2:	ac 01       	movw	r20, r24
    1cc4:	c3 01       	movw	r24, r6
    1cc6:	b2 01       	movw	r22, r4
    1cc8:	0e 94 b3 1c 	call	0x3966	; 0x3966 <__divsf3>
    1ccc:	f8 01       	movw	r30, r16
    1cce:	60 83       	st	Z, r22
    1cd0:	71 83       	std	Z+1, r23	; 0x01
    1cd2:	82 83       	std	Z+2, r24	; 0x02
    1cd4:	93 83       	std	Z+3, r25	; 0x03
    1cd6:	a7 01       	movw	r20, r14
    1cd8:	96 01       	movw	r18, r12
    1cda:	c5 01       	movw	r24, r10
    1cdc:	b4 01       	movw	r22, r8
    1cde:	0e 94 b3 1c 	call	0x3966	; 0x3966 <__divsf3>
    1ce2:	d8 01       	movw	r26, r16
    1ce4:	14 96       	adiw	r26, 0x04	; 4
    1ce6:	6d 93       	st	X+, r22
    1ce8:	7d 93       	st	X+, r23
    1cea:	8d 93       	st	X+, r24
    1cec:	9c 93       	st	X, r25
    1cee:	17 97       	sbiw	r26, 0x07	; 7
    1cf0:	a7 01       	movw	r20, r14
    1cf2:	96 01       	movw	r18, r12
    1cf4:	69 81       	ldd	r22, Y+1	; 0x01
    1cf6:	7a 81       	ldd	r23, Y+2	; 0x02
    1cf8:	8b 81       	ldd	r24, Y+3	; 0x03
    1cfa:	9c 81       	ldd	r25, Y+4	; 0x04
    1cfc:	0e 94 b3 1c 	call	0x3966	; 0x3966 <__divsf3>
    1d00:	f8 01       	movw	r30, r16
    1d02:	60 87       	std	Z+8, r22	; 0x08
    1d04:	71 87       	std	Z+9, r23	; 0x09
    1d06:	82 87       	std	Z+10, r24	; 0x0a
    1d08:	93 87       	std	Z+11, r25	; 0x0b
    1d0a:	0f 90       	pop	r0
    1d0c:	0f 90       	pop	r0
    1d0e:	0f 90       	pop	r0
    1d10:	0f 90       	pop	r0
    1d12:	df 91       	pop	r29
    1d14:	cf 91       	pop	r28
    1d16:	1f 91       	pop	r17
    1d18:	0f 91       	pop	r16
    1d1a:	ff 90       	pop	r15
    1d1c:	ef 90       	pop	r14
    1d1e:	df 90       	pop	r13
    1d20:	cf 90       	pop	r12
    1d22:	bf 90       	pop	r11
    1d24:	af 90       	pop	r10
    1d26:	9f 90       	pop	r9
    1d28:	8f 90       	pop	r8
    1d2a:	7f 90       	pop	r7
    1d2c:	6f 90       	pop	r6
    1d2e:	5f 90       	pop	r5
    1d30:	4f 90       	pop	r4
    1d32:	08 95       	ret

00001d34 <_ZN6LSM3037headingIiEEfNS_6vectorIT_EE>:
    1d34:	4f 92       	push	r4
    1d36:	5f 92       	push	r5
    1d38:	6f 92       	push	r6
    1d3a:	7f 92       	push	r7
    1d3c:	8f 92       	push	r8
    1d3e:	9f 92       	push	r9
    1d40:	af 92       	push	r10
    1d42:	bf 92       	push	r11
    1d44:	cf 92       	push	r12
    1d46:	df 92       	push	r13
    1d48:	ef 92       	push	r14
    1d4a:	ff 92       	push	r15
    1d4c:	0f 93       	push	r16
    1d4e:	1f 93       	push	r17
    1d50:	cf 93       	push	r28
    1d52:	df 93       	push	r29
    1d54:	cd b7       	in	r28, 0x3d	; 61
    1d56:	de b7       	in	r29, 0x3e	; 62
    1d58:	aa 97       	sbiw	r28, 0x2a	; 42
    1d5a:	0f b6       	in	r0, 0x3f	; 63
    1d5c:	f8 94       	cli
    1d5e:	de bf       	out	0x3e, r29	; 62
    1d60:	0f be       	out	0x3f, r0	; 63
    1d62:	cd bf       	out	0x3d, r28	; 61
    1d64:	8c 01       	movw	r16, r24
    1d66:	29 8f       	std	Y+25, r18	; 0x19
    1d68:	3a 8f       	std	Y+26, r19	; 0x1a
    1d6a:	4b 8f       	std	Y+27, r20	; 0x1b
    1d6c:	5c 8f       	std	Y+28, r21	; 0x1c
    1d6e:	6d 8f       	std	Y+29, r22	; 0x1d
    1d70:	7e 8f       	std	Y+30, r23	; 0x1e
    1d72:	dc 01       	movw	r26, r24
    1d74:	16 96       	adiw	r26, 0x06	; 6
    1d76:	8d 91       	ld	r24, X+
    1d78:	9c 91       	ld	r25, X
    1d7a:	17 97       	sbiw	r26, 0x07	; 7
    1d7c:	9c 01       	movw	r18, r24
    1d7e:	44 27       	eor	r20, r20
    1d80:	37 fd       	sbrc	r19, 7
    1d82:	40 95       	com	r20
    1d84:	54 2f       	mov	r21, r20
    1d86:	2f 8f       	std	Y+31, r18	; 0x1f
    1d88:	38 a3       	std	Y+32, r19	; 0x20
    1d8a:	49 a3       	std	Y+33, r20	; 0x21
    1d8c:	5a a3       	std	Y+34, r21	; 0x22
    1d8e:	52 96       	adiw	r26, 0x12	; 18
    1d90:	6d 91       	ld	r22, X+
    1d92:	7c 91       	ld	r23, X
    1d94:	53 97       	sbiw	r26, 0x13	; 19
    1d96:	88 27       	eor	r24, r24
    1d98:	77 fd       	sbrc	r23, 7
    1d9a:	80 95       	com	r24
    1d9c:	98 2f       	mov	r25, r24
    1d9e:	1c 96       	adiw	r26, 0x0c	; 12
    1da0:	cd 90       	ld	r12, X+
    1da2:	dc 90       	ld	r13, X
    1da4:	1d 97       	sbiw	r26, 0x0d	; 13
    1da6:	ee 24       	eor	r14, r14
    1da8:	d7 fc       	sbrc	r13, 7
    1daa:	e0 94       	com	r14
    1dac:	fe 2c       	mov	r15, r14
    1dae:	6c 0d       	add	r22, r12
    1db0:	7d 1d       	adc	r23, r13
    1db2:	8e 1d       	adc	r24, r14
    1db4:	9f 1d       	adc	r25, r15
    1db6:	22 e0       	ldi	r18, 0x02	; 2
    1db8:	82 2e       	mov	r8, r18
    1dba:	91 2c       	mov	r9, r1
    1dbc:	a1 2c       	mov	r10, r1
    1dbe:	b1 2c       	mov	r11, r1
    1dc0:	a5 01       	movw	r20, r10
    1dc2:	94 01       	movw	r18, r8
    1dc4:	0e 94 c0 26 	call	0x4d80	; 0x4d80 <__divmodsi4>
    1dc8:	8f 8d       	ldd	r24, Y+31	; 0x1f
    1dca:	98 a1       	ldd	r25, Y+32	; 0x20
    1dcc:	a9 a1       	ldd	r26, Y+33	; 0x21
    1dce:	ba a1       	ldd	r27, Y+34	; 0x22
    1dd0:	82 1b       	sub	r24, r18
    1dd2:	93 0b       	sbc	r25, r19
    1dd4:	a4 0b       	sbc	r26, r20
    1dd6:	b5 0b       	sbc	r27, r21
    1dd8:	8f 8f       	std	Y+31, r24	; 0x1f
    1dda:	98 a3       	std	Y+32, r25	; 0x20
    1ddc:	a9 a3       	std	Y+33, r26	; 0x21
    1dde:	ba a3       	std	Y+34, r27	; 0x22
    1de0:	d8 01       	movw	r26, r16
    1de2:	18 96       	adiw	r26, 0x08	; 8
    1de4:	8d 91       	ld	r24, X+
    1de6:	9c 91       	ld	r25, X
    1de8:	19 97       	sbiw	r26, 0x09	; 9
    1dea:	9c 01       	movw	r18, r24
    1dec:	44 27       	eor	r20, r20
    1dee:	37 fd       	sbrc	r19, 7
    1df0:	40 95       	com	r20
    1df2:	54 2f       	mov	r21, r20
    1df4:	2b a3       	std	Y+35, r18	; 0x23
    1df6:	3c a3       	std	Y+36, r19	; 0x24
    1df8:	4d a3       	std	Y+37, r20	; 0x25
    1dfa:	5e a3       	std	Y+38, r21	; 0x26
    1dfc:	54 96       	adiw	r26, 0x14	; 20
    1dfe:	6d 91       	ld	r22, X+
    1e00:	7c 91       	ld	r23, X
    1e02:	55 97       	sbiw	r26, 0x15	; 21
    1e04:	88 27       	eor	r24, r24
    1e06:	77 fd       	sbrc	r23, 7
    1e08:	80 95       	com	r24
    1e0a:	98 2f       	mov	r25, r24
    1e0c:	1e 96       	adiw	r26, 0x0e	; 14
    1e0e:	cd 90       	ld	r12, X+
    1e10:	dc 90       	ld	r13, X
    1e12:	1f 97       	sbiw	r26, 0x0f	; 15
    1e14:	ee 24       	eor	r14, r14
    1e16:	d7 fc       	sbrc	r13, 7
    1e18:	e0 94       	com	r14
    1e1a:	fe 2c       	mov	r15, r14
    1e1c:	6c 0d       	add	r22, r12
    1e1e:	7d 1d       	adc	r23, r13
    1e20:	8e 1d       	adc	r24, r14
    1e22:	9f 1d       	adc	r25, r15
    1e24:	a5 01       	movw	r20, r10
    1e26:	94 01       	movw	r18, r8
    1e28:	0e 94 c0 26 	call	0x4d80	; 0x4d80 <__divmodsi4>
    1e2c:	8b a1       	ldd	r24, Y+35	; 0x23
    1e2e:	9c a1       	ldd	r25, Y+36	; 0x24
    1e30:	ad a1       	ldd	r26, Y+37	; 0x25
    1e32:	be a1       	ldd	r27, Y+38	; 0x26
    1e34:	82 1b       	sub	r24, r18
    1e36:	93 0b       	sbc	r25, r19
    1e38:	a4 0b       	sbc	r26, r20
    1e3a:	b5 0b       	sbc	r27, r21
    1e3c:	8b a3       	std	Y+35, r24	; 0x23
    1e3e:	9c a3       	std	Y+36, r25	; 0x24
    1e40:	ad a3       	std	Y+37, r26	; 0x25
    1e42:	be a3       	std	Y+38, r27	; 0x26
    1e44:	d8 01       	movw	r26, r16
    1e46:	1a 96       	adiw	r26, 0x0a	; 10
    1e48:	cd 90       	ld	r12, X+
    1e4a:	dc 90       	ld	r13, X
    1e4c:	1b 97       	sbiw	r26, 0x0b	; 11
    1e4e:	ee 24       	eor	r14, r14
    1e50:	d7 fc       	sbrc	r13, 7
    1e52:	e0 94       	com	r14
    1e54:	fe 2c       	mov	r15, r14
    1e56:	56 96       	adiw	r26, 0x16	; 22
    1e58:	6d 91       	ld	r22, X+
    1e5a:	7c 91       	ld	r23, X
    1e5c:	57 97       	sbiw	r26, 0x17	; 23
    1e5e:	88 27       	eor	r24, r24
    1e60:	77 fd       	sbrc	r23, 7
    1e62:	80 95       	com	r24
    1e64:	98 2f       	mov	r25, r24
    1e66:	50 96       	adiw	r26, 0x10	; 16
    1e68:	4d 90       	ld	r4, X+
    1e6a:	5c 90       	ld	r5, X
    1e6c:	51 97       	sbiw	r26, 0x11	; 17
    1e6e:	66 24       	eor	r6, r6
    1e70:	57 fc       	sbrc	r5, 7
    1e72:	60 94       	com	r6
    1e74:	76 2c       	mov	r7, r6
    1e76:	64 0d       	add	r22, r4
    1e78:	75 1d       	adc	r23, r5
    1e7a:	86 1d       	adc	r24, r6
    1e7c:	97 1d       	adc	r25, r7
    1e7e:	a5 01       	movw	r20, r10
    1e80:	94 01       	movw	r18, r8
    1e82:	0e 94 c0 26 	call	0x4d80	; 0x4d80 <__divmodsi4>
    1e86:	c2 1a       	sub	r12, r18
    1e88:	d3 0a       	sbc	r13, r19
    1e8a:	e4 0a       	sbc	r14, r20
    1e8c:	f5 0a       	sbc	r15, r21
    1e8e:	f8 01       	movw	r30, r16
    1e90:	44 80       	ldd	r4, Z+4	; 0x04
    1e92:	55 80       	ldd	r5, Z+5	; 0x05
    1e94:	66 24       	eor	r6, r6
    1e96:	57 fc       	sbrc	r5, 7
    1e98:	60 94       	com	r6
    1e9a:	76 2c       	mov	r7, r6
    1e9c:	82 81       	ldd	r24, Z+2	; 0x02
    1e9e:	93 81       	ldd	r25, Z+3	; 0x03
    1ea0:	9c 01       	movw	r18, r24
    1ea2:	44 27       	eor	r20, r20
    1ea4:	37 fd       	sbrc	r19, 7
    1ea6:	40 95       	com	r20
    1ea8:	54 2f       	mov	r21, r20
    1eaa:	2f a3       	std	Y+39, r18	; 0x27
    1eac:	38 a7       	std	Y+40, r19	; 0x28
    1eae:	49 a7       	std	Y+41, r20	; 0x29
    1eb0:	5a a7       	std	Y+42, r21	; 0x2a
    1eb2:	2b a1       	ldd	r18, Y+35	; 0x23
    1eb4:	3c a1       	ldd	r19, Y+36	; 0x24
    1eb6:	4d a1       	ldd	r20, Y+37	; 0x25
    1eb8:	5e a1       	ldd	r21, Y+38	; 0x26
    1eba:	c3 01       	movw	r24, r6
    1ebc:	b2 01       	movw	r22, r4
    1ebe:	0e 94 8f 26 	call	0x4d1e	; 0x4d1e <__mulsi3>
    1ec2:	4b 01       	movw	r8, r22
    1ec4:	5c 01       	movw	r10, r24
    1ec6:	a7 01       	movw	r20, r14
    1ec8:	96 01       	movw	r18, r12
    1eca:	6f a1       	ldd	r22, Y+39	; 0x27
    1ecc:	78 a5       	ldd	r23, Y+40	; 0x28
    1ece:	89 a5       	ldd	r24, Y+41	; 0x29
    1ed0:	9a a5       	ldd	r25, Y+42	; 0x2a
    1ed2:	0e 94 8f 26 	call	0x4d1e	; 0x4d1e <__mulsi3>
    1ed6:	86 1a       	sub	r8, r22
    1ed8:	97 0a       	sbc	r9, r23
    1eda:	a8 0a       	sbc	r10, r24
    1edc:	b9 0a       	sbc	r11, r25
    1ede:	c5 01       	movw	r24, r10
    1ee0:	b4 01       	movw	r22, r8
    1ee2:	0e 94 49 1d 	call	0x3a92	; 0x3a92 <__floatsisf>
    1ee6:	6d 87       	std	Y+13, r22	; 0x0d
    1ee8:	7e 87       	std	Y+14, r23	; 0x0e
    1eea:	8f 87       	std	Y+15, r24	; 0x0f
    1eec:	98 8b       	std	Y+16, r25	; 0x10
    1eee:	d8 01       	movw	r26, r16
    1ef0:	8d 90       	ld	r8, X+
    1ef2:	9c 90       	ld	r9, X
    1ef4:	aa 24       	eor	r10, r10
    1ef6:	97 fc       	sbrc	r9, 7
    1ef8:	a0 94       	com	r10
    1efa:	ba 2c       	mov	r11, r10
    1efc:	a7 01       	movw	r20, r14
    1efe:	96 01       	movw	r18, r12
    1f00:	c5 01       	movw	r24, r10
    1f02:	b4 01       	movw	r22, r8
    1f04:	0e 94 8f 26 	call	0x4d1e	; 0x4d1e <__mulsi3>
    1f08:	6b 01       	movw	r12, r22
    1f0a:	7c 01       	movw	r14, r24
    1f0c:	2f 8d       	ldd	r18, Y+31	; 0x1f
    1f0e:	38 a1       	ldd	r19, Y+32	; 0x20
    1f10:	49 a1       	ldd	r20, Y+33	; 0x21
    1f12:	5a a1       	ldd	r21, Y+34	; 0x22
    1f14:	c3 01       	movw	r24, r6
    1f16:	b2 01       	movw	r22, r4
    1f18:	0e 94 8f 26 	call	0x4d1e	; 0x4d1e <__mulsi3>
    1f1c:	c6 1a       	sub	r12, r22
    1f1e:	d7 0a       	sbc	r13, r23
    1f20:	e8 0a       	sbc	r14, r24
    1f22:	f9 0a       	sbc	r15, r25
    1f24:	c7 01       	movw	r24, r14
    1f26:	b6 01       	movw	r22, r12
    1f28:	0e 94 49 1d 	call	0x3a92	; 0x3a92 <__floatsisf>
    1f2c:	69 8b       	std	Y+17, r22	; 0x11
    1f2e:	7a 8b       	std	Y+18, r23	; 0x12
    1f30:	8b 8b       	std	Y+19, r24	; 0x13
    1f32:	9c 8b       	std	Y+20, r25	; 0x14
    1f34:	2f 8d       	ldd	r18, Y+31	; 0x1f
    1f36:	38 a1       	ldd	r19, Y+32	; 0x20
    1f38:	49 a1       	ldd	r20, Y+33	; 0x21
    1f3a:	5a a1       	ldd	r21, Y+34	; 0x22
    1f3c:	6f a1       	ldd	r22, Y+39	; 0x27
    1f3e:	78 a5       	ldd	r23, Y+40	; 0x28
    1f40:	89 a5       	ldd	r24, Y+41	; 0x29
    1f42:	9a a5       	ldd	r25, Y+42	; 0x2a
    1f44:	0e 94 8f 26 	call	0x4d1e	; 0x4d1e <__mulsi3>
    1f48:	6b 01       	movw	r12, r22
    1f4a:	7c 01       	movw	r14, r24
    1f4c:	2b a1       	ldd	r18, Y+35	; 0x23
    1f4e:	3c a1       	ldd	r19, Y+36	; 0x24
    1f50:	4d a1       	ldd	r20, Y+37	; 0x25
    1f52:	5e a1       	ldd	r21, Y+38	; 0x26
    1f54:	c5 01       	movw	r24, r10
    1f56:	b4 01       	movw	r22, r8
    1f58:	0e 94 8f 26 	call	0x4d1e	; 0x4d1e <__mulsi3>
    1f5c:	c6 1a       	sub	r12, r22
    1f5e:	d7 0a       	sbc	r13, r23
    1f60:	e8 0a       	sbc	r14, r24
    1f62:	f9 0a       	sbc	r15, r25
    1f64:	c7 01       	movw	r24, r14
    1f66:	b6 01       	movw	r22, r12
    1f68:	0e 94 49 1d 	call	0x3a92	; 0x3a92 <__floatsisf>
    1f6c:	6d 8b       	std	Y+21, r22	; 0x15
    1f6e:	7e 8b       	std	Y+22, r23	; 0x16
    1f70:	8f 8b       	std	Y+23, r24	; 0x17
    1f72:	98 8f       	std	Y+24, r25	; 0x18
    1f74:	ce 01       	movw	r24, r28
    1f76:	0d 96       	adiw	r24, 0x0d	; 13
    1f78:	50 de       	rcall	.-864    	; 0x1c1a <_ZN6LSM30316vector_normalizeEPNS_6vectorIfEE>
    1f7a:	f8 01       	movw	r30, r16
    1f7c:	62 81       	ldd	r22, Z+2	; 0x02
    1f7e:	73 81       	ldd	r23, Z+3	; 0x03
    1f80:	88 27       	eor	r24, r24
    1f82:	77 fd       	sbrc	r23, 7
    1f84:	80 95       	com	r24
    1f86:	98 2f       	mov	r25, r24
    1f88:	0e 94 49 1d 	call	0x3a92	; 0x3a92 <__floatsisf>
    1f8c:	6b 01       	movw	r12, r22
    1f8e:	7c 01       	movw	r14, r24
    1f90:	2d 89       	ldd	r18, Y+21	; 0x15
    1f92:	3e 89       	ldd	r19, Y+22	; 0x16
    1f94:	4f 89       	ldd	r20, Y+23	; 0x17
    1f96:	58 8d       	ldd	r21, Y+24	; 0x18
    1f98:	2f 8f       	std	Y+31, r18	; 0x1f
    1f9a:	38 a3       	std	Y+32, r19	; 0x20
    1f9c:	49 a3       	std	Y+33, r20	; 0x21
    1f9e:	5a a3       	std	Y+34, r21	; 0x22
    1fa0:	d8 01       	movw	r26, r16
    1fa2:	14 96       	adiw	r26, 0x04	; 4
    1fa4:	6d 91       	ld	r22, X+
    1fa6:	7c 91       	ld	r23, X
    1fa8:	15 97       	sbiw	r26, 0x05	; 5
    1faa:	88 27       	eor	r24, r24
    1fac:	77 fd       	sbrc	r23, 7
    1fae:	80 95       	com	r24
    1fb0:	98 2f       	mov	r25, r24
    1fb2:	0e 94 49 1d 	call	0x3a92	; 0x3a92 <__floatsisf>
    1fb6:	2b 01       	movw	r4, r22
    1fb8:	3c 01       	movw	r6, r24
    1fba:	29 89       	ldd	r18, Y+17	; 0x11
    1fbc:	3a 89       	ldd	r19, Y+18	; 0x12
    1fbe:	4b 89       	ldd	r20, Y+19	; 0x13
    1fc0:	5c 89       	ldd	r21, Y+20	; 0x14
    1fc2:	2b a3       	std	Y+35, r18	; 0x23
    1fc4:	3c a3       	std	Y+36, r19	; 0x24
    1fc6:	4d a3       	std	Y+37, r20	; 0x25
    1fc8:	5e a3       	std	Y+38, r21	; 0x26
    1fca:	2f 8d       	ldd	r18, Y+31	; 0x1f
    1fcc:	38 a1       	ldd	r19, Y+32	; 0x20
    1fce:	49 a1       	ldd	r20, Y+33	; 0x21
    1fd0:	5a a1       	ldd	r21, Y+34	; 0x22
    1fd2:	c7 01       	movw	r24, r14
    1fd4:	b6 01       	movw	r22, r12
    1fd6:	0e 94 8e 1e 	call	0x3d1c	; 0x3d1c <__mulsf3>
    1fda:	4b 01       	movw	r8, r22
    1fdc:	5c 01       	movw	r10, r24
    1fde:	2b a1       	ldd	r18, Y+35	; 0x23
    1fe0:	3c a1       	ldd	r19, Y+36	; 0x24
    1fe2:	4d a1       	ldd	r20, Y+37	; 0x25
    1fe4:	5e a1       	ldd	r21, Y+38	; 0x26
    1fe6:	c3 01       	movw	r24, r6
    1fe8:	b2 01       	movw	r22, r4
    1fea:	0e 94 8e 1e 	call	0x3d1c	; 0x3d1c <__mulsf3>
    1fee:	9b 01       	movw	r18, r22
    1ff0:	ac 01       	movw	r20, r24
    1ff2:	c5 01       	movw	r24, r10
    1ff4:	b4 01       	movw	r22, r8
    1ff6:	0e 94 ce 1b 	call	0x379c	; 0x379c <__subsf3>
    1ffa:	69 83       	std	Y+1, r22	; 0x01
    1ffc:	7a 83       	std	Y+2, r23	; 0x02
    1ffe:	8b 83       	std	Y+3, r24	; 0x03
    2000:	9c 83       	std	Y+4, r25	; 0x04
    2002:	8d 85       	ldd	r24, Y+13	; 0x0d
    2004:	9e 85       	ldd	r25, Y+14	; 0x0e
    2006:	af 85       	ldd	r26, Y+15	; 0x0f
    2008:	b8 89       	ldd	r27, Y+16	; 0x10
    200a:	8f a3       	std	Y+39, r24	; 0x27
    200c:	98 a7       	std	Y+40, r25	; 0x28
    200e:	a9 a7       	std	Y+41, r26	; 0x29
    2010:	ba a7       	std	Y+42, r27	; 0x2a
    2012:	d8 01       	movw	r26, r16
    2014:	6d 91       	ld	r22, X+
    2016:	7c 91       	ld	r23, X
    2018:	88 27       	eor	r24, r24
    201a:	77 fd       	sbrc	r23, 7
    201c:	80 95       	com	r24
    201e:	98 2f       	mov	r25, r24
    2020:	0e 94 49 1d 	call	0x3a92	; 0x3a92 <__floatsisf>
    2024:	4b 01       	movw	r8, r22
    2026:	5c 01       	movw	r10, r24
    2028:	2f a1       	ldd	r18, Y+39	; 0x27
    202a:	38 a5       	ldd	r19, Y+40	; 0x28
    202c:	49 a5       	ldd	r20, Y+41	; 0x29
    202e:	5a a5       	ldd	r21, Y+42	; 0x2a
    2030:	c3 01       	movw	r24, r6
    2032:	b2 01       	movw	r22, r4
    2034:	0e 94 8e 1e 	call	0x3d1c	; 0x3d1c <__mulsf3>
    2038:	2b 01       	movw	r4, r22
    203a:	3c 01       	movw	r6, r24
    203c:	2f 8d       	ldd	r18, Y+31	; 0x1f
    203e:	38 a1       	ldd	r19, Y+32	; 0x20
    2040:	49 a1       	ldd	r20, Y+33	; 0x21
    2042:	5a a1       	ldd	r21, Y+34	; 0x22
    2044:	c5 01       	movw	r24, r10
    2046:	b4 01       	movw	r22, r8
    2048:	0e 94 8e 1e 	call	0x3d1c	; 0x3d1c <__mulsf3>
    204c:	9b 01       	movw	r18, r22
    204e:	ac 01       	movw	r20, r24
    2050:	c3 01       	movw	r24, r6
    2052:	b2 01       	movw	r22, r4
    2054:	0e 94 ce 1b 	call	0x379c	; 0x379c <__subsf3>
    2058:	6d 83       	std	Y+5, r22	; 0x05
    205a:	7e 83       	std	Y+6, r23	; 0x06
    205c:	8f 83       	std	Y+7, r24	; 0x07
    205e:	98 87       	std	Y+8, r25	; 0x08
    2060:	2b a1       	ldd	r18, Y+35	; 0x23
    2062:	3c a1       	ldd	r19, Y+36	; 0x24
    2064:	4d a1       	ldd	r20, Y+37	; 0x25
    2066:	5e a1       	ldd	r21, Y+38	; 0x26
    2068:	c5 01       	movw	r24, r10
    206a:	b4 01       	movw	r22, r8
    206c:	0e 94 8e 1e 	call	0x3d1c	; 0x3d1c <__mulsf3>
    2070:	4b 01       	movw	r8, r22
    2072:	5c 01       	movw	r10, r24
    2074:	2f a1       	ldd	r18, Y+39	; 0x27
    2076:	38 a5       	ldd	r19, Y+40	; 0x28
    2078:	49 a5       	ldd	r20, Y+41	; 0x29
    207a:	5a a5       	ldd	r21, Y+42	; 0x2a
    207c:	c7 01       	movw	r24, r14
    207e:	b6 01       	movw	r22, r12
    2080:	0e 94 8e 1e 	call	0x3d1c	; 0x3d1c <__mulsf3>
    2084:	9b 01       	movw	r18, r22
    2086:	ac 01       	movw	r20, r24
    2088:	c5 01       	movw	r24, r10
    208a:	b4 01       	movw	r22, r8
    208c:	0e 94 ce 1b 	call	0x379c	; 0x379c <__subsf3>
    2090:	69 87       	std	Y+9, r22	; 0x09
    2092:	7a 87       	std	Y+10, r23	; 0x0a
    2094:	8b 87       	std	Y+11, r24	; 0x0b
    2096:	9c 87       	std	Y+12, r25	; 0x0c
    2098:	ce 01       	movw	r24, r28
    209a:	01 96       	adiw	r24, 0x01	; 1
    209c:	be dd       	rcall	.-1156   	; 0x1c1a <_ZN6LSM30316vector_normalizeEPNS_6vectorIfEE>
    209e:	69 8d       	ldd	r22, Y+25	; 0x19
    20a0:	7a 8d       	ldd	r23, Y+26	; 0x1a
    20a2:	88 27       	eor	r24, r24
    20a4:	77 fd       	sbrc	r23, 7
    20a6:	80 95       	com	r24
    20a8:	98 2f       	mov	r25, r24
    20aa:	0e 94 49 1d 	call	0x3a92	; 0x3a92 <__floatsisf>
    20ae:	2b 01       	movw	r4, r22
    20b0:	3c 01       	movw	r6, r24
    20b2:	6b 8d       	ldd	r22, Y+27	; 0x1b
    20b4:	7c 8d       	ldd	r23, Y+28	; 0x1c
    20b6:	88 27       	eor	r24, r24
    20b8:	77 fd       	sbrc	r23, 7
    20ba:	80 95       	com	r24
    20bc:	98 2f       	mov	r25, r24
    20be:	0e 94 49 1d 	call	0x3a92	; 0x3a92 <__floatsisf>
    20c2:	4b 01       	movw	r8, r22
    20c4:	5c 01       	movw	r10, r24
    20c6:	6d 8d       	ldd	r22, Y+29	; 0x1d
    20c8:	7e 8d       	ldd	r23, Y+30	; 0x1e
    20ca:	88 27       	eor	r24, r24
    20cc:	77 fd       	sbrc	r23, 7
    20ce:	80 95       	com	r24
    20d0:	98 2f       	mov	r25, r24
    20d2:	0e 94 49 1d 	call	0x3a92	; 0x3a92 <__floatsisf>
    20d6:	6b 01       	movw	r12, r22
    20d8:	7c 01       	movw	r14, r24
    20da:	29 81       	ldd	r18, Y+1	; 0x01
    20dc:	3a 81       	ldd	r19, Y+2	; 0x02
    20de:	4b 81       	ldd	r20, Y+3	; 0x03
    20e0:	5c 81       	ldd	r21, Y+4	; 0x04
    20e2:	c3 01       	movw	r24, r6
    20e4:	b2 01       	movw	r22, r4
    20e6:	0e 94 8e 1e 	call	0x3d1c	; 0x3d1c <__mulsf3>
    20ea:	6f 8f       	std	Y+31, r22	; 0x1f
    20ec:	78 a3       	std	Y+32, r23	; 0x20
    20ee:	89 a3       	std	Y+33, r24	; 0x21
    20f0:	9a a3       	std	Y+34, r25	; 0x22
    20f2:	2d 81       	ldd	r18, Y+5	; 0x05
    20f4:	3e 81       	ldd	r19, Y+6	; 0x06
    20f6:	4f 81       	ldd	r20, Y+7	; 0x07
    20f8:	58 85       	ldd	r21, Y+8	; 0x08
    20fa:	c5 01       	movw	r24, r10
    20fc:	b4 01       	movw	r22, r8
    20fe:	0e 94 8e 1e 	call	0x3d1c	; 0x3d1c <__mulsf3>
    2102:	9b 01       	movw	r18, r22
    2104:	ac 01       	movw	r20, r24
    2106:	6f 8d       	ldd	r22, Y+31	; 0x1f
    2108:	78 a1       	ldd	r23, Y+32	; 0x20
    210a:	89 a1       	ldd	r24, Y+33	; 0x21
    210c:	9a a1       	ldd	r25, Y+34	; 0x22
    210e:	0e 94 cf 1b 	call	0x379e	; 0x379e <__addsf3>
    2112:	6f 8f       	std	Y+31, r22	; 0x1f
    2114:	78 a3       	std	Y+32, r23	; 0x20
    2116:	89 a3       	std	Y+33, r24	; 0x21
    2118:	9a a3       	std	Y+34, r25	; 0x22
    211a:	29 85       	ldd	r18, Y+9	; 0x09
    211c:	3a 85       	ldd	r19, Y+10	; 0x0a
    211e:	4b 85       	ldd	r20, Y+11	; 0x0b
    2120:	5c 85       	ldd	r21, Y+12	; 0x0c
    2122:	c7 01       	movw	r24, r14
    2124:	b6 01       	movw	r22, r12
    2126:	0e 94 8e 1e 	call	0x3d1c	; 0x3d1c <__mulsf3>
    212a:	9b 01       	movw	r18, r22
    212c:	ac 01       	movw	r20, r24
    212e:	6f 8d       	ldd	r22, Y+31	; 0x1f
    2130:	78 a1       	ldd	r23, Y+32	; 0x20
    2132:	89 a1       	ldd	r24, Y+33	; 0x21
    2134:	9a a1       	ldd	r25, Y+34	; 0x22
    2136:	0e 94 cf 1b 	call	0x379e	; 0x379e <__addsf3>
    213a:	6f 8f       	std	Y+31, r22	; 0x1f
    213c:	78 a3       	std	Y+32, r23	; 0x20
    213e:	89 a3       	std	Y+33, r24	; 0x21
    2140:	9a a3       	std	Y+34, r25	; 0x22
    2142:	2d 85       	ldd	r18, Y+13	; 0x0d
    2144:	3e 85       	ldd	r19, Y+14	; 0x0e
    2146:	4f 85       	ldd	r20, Y+15	; 0x0f
    2148:	58 89       	ldd	r21, Y+16	; 0x10
    214a:	c3 01       	movw	r24, r6
    214c:	b2 01       	movw	r22, r4
    214e:	0e 94 8e 1e 	call	0x3d1c	; 0x3d1c <__mulsf3>
    2152:	2b 01       	movw	r4, r22
    2154:	3c 01       	movw	r6, r24
    2156:	29 89       	ldd	r18, Y+17	; 0x11
    2158:	3a 89       	ldd	r19, Y+18	; 0x12
    215a:	4b 89       	ldd	r20, Y+19	; 0x13
    215c:	5c 89       	ldd	r21, Y+20	; 0x14
    215e:	c5 01       	movw	r24, r10
    2160:	b4 01       	movw	r22, r8
    2162:	0e 94 8e 1e 	call	0x3d1c	; 0x3d1c <__mulsf3>
    2166:	9b 01       	movw	r18, r22
    2168:	ac 01       	movw	r20, r24
    216a:	c3 01       	movw	r24, r6
    216c:	b2 01       	movw	r22, r4
    216e:	0e 94 cf 1b 	call	0x379e	; 0x379e <__addsf3>
    2172:	4b 01       	movw	r8, r22
    2174:	5c 01       	movw	r10, r24
    2176:	2d 89       	ldd	r18, Y+21	; 0x15
    2178:	3e 89       	ldd	r19, Y+22	; 0x16
    217a:	4f 89       	ldd	r20, Y+23	; 0x17
    217c:	58 8d       	ldd	r21, Y+24	; 0x18
    217e:	c7 01       	movw	r24, r14
    2180:	b6 01       	movw	r22, r12
    2182:	0e 94 8e 1e 	call	0x3d1c	; 0x3d1c <__mulsf3>
    2186:	9b 01       	movw	r18, r22
    2188:	ac 01       	movw	r20, r24
    218a:	c5 01       	movw	r24, r10
    218c:	b4 01       	movw	r22, r8
    218e:	0e 94 cf 1b 	call	0x379e	; 0x379e <__addsf3>
    2192:	2f 8d       	ldd	r18, Y+31	; 0x1f
    2194:	38 a1       	ldd	r19, Y+32	; 0x20
    2196:	49 a1       	ldd	r20, Y+33	; 0x21
    2198:	5a a1       	ldd	r21, Y+34	; 0x22
    219a:	0e 94 59 1c 	call	0x38b2	; 0x38b2 <atan2>
    219e:	20 e0       	ldi	r18, 0x00	; 0
    21a0:	30 e0       	ldi	r19, 0x00	; 0
    21a2:	44 e3       	ldi	r20, 0x34	; 52
    21a4:	53 e4       	ldi	r21, 0x43	; 67
    21a6:	0e 94 8e 1e 	call	0x3d1c	; 0x3d1c <__mulsf3>
    21aa:	2b ed       	ldi	r18, 0xDB	; 219
    21ac:	3f e0       	ldi	r19, 0x0F	; 15
    21ae:	49 e4       	ldi	r20, 0x49	; 73
    21b0:	50 e4       	ldi	r21, 0x40	; 64
    21b2:	0e 94 b3 1c 	call	0x3966	; 0x3966 <__divsf3>
    21b6:	6b 01       	movw	r12, r22
    21b8:	7c 01       	movw	r14, r24
    21ba:	20 e0       	ldi	r18, 0x00	; 0
    21bc:	30 e0       	ldi	r19, 0x00	; 0
    21be:	a9 01       	movw	r20, r18
    21c0:	0e 94 ac 1c 	call	0x3958	; 0x3958 <__cmpsf2>
    21c4:	87 ff       	sbrs	r24, 7
    21c6:	0a c0       	rjmp	.+20     	; 0x21dc <_ZN6LSM3037headingIiEEfNS_6vectorIT_EE+0x4a8>
    21c8:	20 e0       	ldi	r18, 0x00	; 0
    21ca:	30 e0       	ldi	r19, 0x00	; 0
    21cc:	44 eb       	ldi	r20, 0xB4	; 180
    21ce:	53 e4       	ldi	r21, 0x43	; 67
    21d0:	c7 01       	movw	r24, r14
    21d2:	b6 01       	movw	r22, r12
    21d4:	0e 94 cf 1b 	call	0x379e	; 0x379e <__addsf3>
    21d8:	6b 01       	movw	r12, r22
    21da:	7c 01       	movw	r14, r24
    21dc:	c7 01       	movw	r24, r14
    21de:	b6 01       	movw	r22, r12
    21e0:	aa 96       	adiw	r28, 0x2a	; 42
    21e2:	0f b6       	in	r0, 0x3f	; 63
    21e4:	f8 94       	cli
    21e6:	de bf       	out	0x3e, r29	; 62
    21e8:	0f be       	out	0x3f, r0	; 63
    21ea:	cd bf       	out	0x3d, r28	; 61
    21ec:	df 91       	pop	r29
    21ee:	cf 91       	pop	r28
    21f0:	1f 91       	pop	r17
    21f2:	0f 91       	pop	r16
    21f4:	ff 90       	pop	r15
    21f6:	ef 90       	pop	r14
    21f8:	df 90       	pop	r13
    21fa:	cf 90       	pop	r12
    21fc:	bf 90       	pop	r11
    21fe:	af 90       	pop	r10
    2200:	9f 90       	pop	r9
    2202:	8f 90       	pop	r8
    2204:	7f 90       	pop	r7
    2206:	6f 90       	pop	r6
    2208:	5f 90       	pop	r5
    220a:	4f 90       	pop	r4
    220c:	08 95       	ret

0000220e <_ZN6LSM3037headingEv>:
    220e:	cf 93       	push	r28
    2210:	df 93       	push	r29
    2212:	cd b7       	in	r28, 0x3d	; 61
    2214:	de b7       	in	r29, 0x3e	; 62
    2216:	2c 97       	sbiw	r28, 0x0c	; 12
    2218:	0f b6       	in	r0, 0x3f	; 63
    221a:	f8 94       	cli
    221c:	de bf       	out	0x3e, r29	; 62
    221e:	0f be       	out	0x3f, r0	; 63
    2220:	cd bf       	out	0x3d, r28	; 61
    2222:	fc 01       	movw	r30, r24
    2224:	21 8d       	ldd	r18, Z+25	; 0x19
    2226:	23 30       	cpi	r18, 0x03	; 3
    2228:	71 f4       	brne	.+28     	; 0x2246 <_ZN6LSM3037headingEv+0x38>
    222a:	31 e0       	ldi	r19, 0x01	; 1
    222c:	23 2f       	mov	r18, r19
    222e:	3f 83       	std	Y+7, r19	; 0x07
    2230:	18 86       	std	Y+8, r1	; 0x08
    2232:	1a 86       	std	Y+10, r1	; 0x0a
    2234:	19 86       	std	Y+9, r1	; 0x09
    2236:	1c 86       	std	Y+12, r1	; 0x0c
    2238:	1b 86       	std	Y+11, r1	; 0x0b
    223a:	30 e0       	ldi	r19, 0x00	; 0
    223c:	40 e0       	ldi	r20, 0x00	; 0
    223e:	5a 85       	ldd	r21, Y+10	; 0x0a
    2240:	60 e0       	ldi	r22, 0x00	; 0
    2242:	7c 85       	ldd	r23, Y+12	; 0x0c
    2244:	0d c0       	rjmp	.+26     	; 0x2260 <_ZN6LSM3037headingEv+0x52>
    2246:	1a 82       	std	Y+2, r1	; 0x02
    2248:	19 82       	std	Y+1, r1	; 0x01
    224a:	2f ef       	ldi	r18, 0xFF	; 255
    224c:	42 2f       	mov	r20, r18
    224e:	2b 83       	std	Y+3, r18	; 0x03
    2250:	2c 83       	std	Y+4, r18	; 0x04
    2252:	1e 82       	std	Y+6, r1	; 0x06
    2254:	1d 82       	std	Y+5, r1	; 0x05
    2256:	20 e0       	ldi	r18, 0x00	; 0
    2258:	3a 81       	ldd	r19, Y+2	; 0x02
    225a:	5f ef       	ldi	r21, 0xFF	; 255
    225c:	60 e0       	ldi	r22, 0x00	; 0
    225e:	7e 81       	ldd	r23, Y+6	; 0x06
    2260:	69 dd       	rcall	.-1326   	; 0x1d34 <_ZN6LSM3037headingIiEEfNS_6vectorIT_EE>
    2262:	2c 96       	adiw	r28, 0x0c	; 12
    2264:	0f b6       	in	r0, 0x3f	; 63
    2266:	f8 94       	cli
    2268:	de bf       	out	0x3e, r29	; 62
    226a:	0f be       	out	0x3f, r0	; 63
    226c:	cd bf       	out	0x3d, r28	; 61
    226e:	df 91       	pop	r29
    2270:	cf 91       	pop	r28
    2272:	08 95       	ret

00002274 <_ZN6LSM30311writeAccRegEhh>:
    2274:	ef 92       	push	r14
    2276:	ff 92       	push	r15
    2278:	1f 93       	push	r17
    227a:	cf 93       	push	r28
    227c:	df 93       	push	r29
    227e:	1f 92       	push	r1
    2280:	cd b7       	in	r28, 0x3d	; 61
    2282:	de b7       	in	r29, 0x3e	; 62
    2284:	7c 01       	movw	r14, r24
    2286:	16 2f       	mov	r17, r22
    2288:	fc 01       	movw	r30, r24
    228a:	62 8d       	ldd	r22, Z+26	; 0x1a
    228c:	83 e0       	ldi	r24, 0x03	; 3
    228e:	9f e0       	ldi	r25, 0x0F	; 15
    2290:	49 83       	std	Y+1, r20	; 0x01
    2292:	0e 94 ad 1b 	call	0x375a	; 0x375a <_ZN7TwoWire17beginTransmissionEh>
    2296:	61 2f       	mov	r22, r17
    2298:	83 e0       	ldi	r24, 0x03	; 3
    229a:	9f e0       	ldi	r25, 0x0F	; 15
    229c:	0e 94 58 1b 	call	0x36b0	; 0x36b0 <_ZN7TwoWire5writeEh>
    22a0:	49 81       	ldd	r20, Y+1	; 0x01
    22a2:	64 2f       	mov	r22, r20
    22a4:	83 e0       	ldi	r24, 0x03	; 3
    22a6:	9f e0       	ldi	r25, 0x0F	; 15
    22a8:	0e 94 58 1b 	call	0x36b0	; 0x36b0 <_ZN7TwoWire5writeEh>
    22ac:	83 e0       	ldi	r24, 0x03	; 3
    22ae:	9f e0       	ldi	r25, 0x0F	; 15
    22b0:	0e 94 c9 1b 	call	0x3792	; 0x3792 <_ZN7TwoWire15endTransmissionEv>
    22b4:	f7 01       	movw	r30, r14
    22b6:	80 8f       	std	Z+24, r24	; 0x18
    22b8:	0f 90       	pop	r0
    22ba:	df 91       	pop	r29
    22bc:	cf 91       	pop	r28
    22be:	1f 91       	pop	r17
    22c0:	ff 90       	pop	r15
    22c2:	ef 90       	pop	r14
    22c4:	08 95       	ret

000022c6 <_ZN6LSM30311writeMagRegEhh>:
    22c6:	ef 92       	push	r14
    22c8:	ff 92       	push	r15
    22ca:	1f 93       	push	r17
    22cc:	cf 93       	push	r28
    22ce:	df 93       	push	r29
    22d0:	1f 92       	push	r1
    22d2:	cd b7       	in	r28, 0x3d	; 61
    22d4:	de b7       	in	r29, 0x3e	; 62
    22d6:	7c 01       	movw	r14, r24
    22d8:	16 2f       	mov	r17, r22
    22da:	fc 01       	movw	r30, r24
    22dc:	63 8d       	ldd	r22, Z+27	; 0x1b
    22de:	83 e0       	ldi	r24, 0x03	; 3
    22e0:	9f e0       	ldi	r25, 0x0F	; 15
    22e2:	49 83       	std	Y+1, r20	; 0x01
    22e4:	0e 94 ad 1b 	call	0x375a	; 0x375a <_ZN7TwoWire17beginTransmissionEh>
    22e8:	61 2f       	mov	r22, r17
    22ea:	83 e0       	ldi	r24, 0x03	; 3
    22ec:	9f e0       	ldi	r25, 0x0F	; 15
    22ee:	0e 94 58 1b 	call	0x36b0	; 0x36b0 <_ZN7TwoWire5writeEh>
    22f2:	49 81       	ldd	r20, Y+1	; 0x01
    22f4:	64 2f       	mov	r22, r20
    22f6:	83 e0       	ldi	r24, 0x03	; 3
    22f8:	9f e0       	ldi	r25, 0x0F	; 15
    22fa:	0e 94 58 1b 	call	0x36b0	; 0x36b0 <_ZN7TwoWire5writeEh>
    22fe:	83 e0       	ldi	r24, 0x03	; 3
    2300:	9f e0       	ldi	r25, 0x0F	; 15
    2302:	0e 94 c9 1b 	call	0x3792	; 0x3792 <_ZN7TwoWire15endTransmissionEv>
    2306:	f7 01       	movw	r30, r14
    2308:	80 8f       	std	Z+24, r24	; 0x18
    230a:	0f 90       	pop	r0
    230c:	df 91       	pop	r29
    230e:	cf 91       	pop	r28
    2310:	1f 91       	pop	r17
    2312:	ff 90       	pop	r15
    2314:	ef 90       	pop	r14
    2316:	08 95       	ret

00002318 <_ZN6LSM3038writeRegEhh>:
    2318:	fc 01       	movw	r30, r24
    231a:	21 8d       	ldd	r18, Z+25	; 0x19
    231c:	23 30       	cpi	r18, 0x03	; 3
    231e:	11 f0       	breq	.+4      	; 0x2324 <_ZN6LSM3038writeRegEhh+0xc>
    2320:	60 32       	cpi	r22, 0x20	; 32
    2322:	08 f4       	brcc	.+2      	; 0x2326 <_ZN6LSM3038writeRegEhh+0xe>
    2324:	d0 cf       	rjmp	.-96     	; 0x22c6 <_ZN6LSM30311writeMagRegEhh>
    2326:	a6 cf       	rjmp	.-180    	; 0x2274 <_ZN6LSM30311writeAccRegEhh>

00002328 <_ZN6LSM30313enableDefaultEv>:
    2328:	cf 93       	push	r28
    232a:	df 93       	push	r29
    232c:	ec 01       	movw	r28, r24
    232e:	89 8d       	ldd	r24, Y+25	; 0x19
    2330:	83 30       	cpi	r24, 0x03	; 3
    2332:	b1 f4       	brne	.+44     	; 0x2360 <_ZN6LSM30313enableDefaultEv+0x38>
    2334:	40 e0       	ldi	r20, 0x00	; 0
    2336:	61 e2       	ldi	r22, 0x21	; 33
    2338:	ce 01       	movw	r24, r28
    233a:	ee df       	rcall	.-36     	; 0x2318 <_ZN6LSM3038writeRegEhh>
    233c:	47 e5       	ldi	r20, 0x57	; 87
    233e:	60 e2       	ldi	r22, 0x20	; 32
    2340:	ce 01       	movw	r24, r28
    2342:	ea df       	rcall	.-44     	; 0x2318 <_ZN6LSM3038writeRegEhh>
    2344:	44 e6       	ldi	r20, 0x64	; 100
    2346:	64 e2       	ldi	r22, 0x24	; 36
    2348:	ce 01       	movw	r24, r28
    234a:	e6 df       	rcall	.-52     	; 0x2318 <_ZN6LSM3038writeRegEhh>
    234c:	40 e2       	ldi	r20, 0x20	; 32
    234e:	65 e2       	ldi	r22, 0x25	; 37
    2350:	ce 01       	movw	r24, r28
    2352:	e2 df       	rcall	.-60     	; 0x2318 <_ZN6LSM3038writeRegEhh>
    2354:	40 e0       	ldi	r20, 0x00	; 0
    2356:	66 e2       	ldi	r22, 0x26	; 38
    2358:	ce 01       	movw	r24, r28
    235a:	df 91       	pop	r29
    235c:	cf 91       	pop	r28
    235e:	dc cf       	rjmp	.-72     	; 0x2318 <_ZN6LSM3038writeRegEhh>
    2360:	82 30       	cpi	r24, 0x02	; 2
    2362:	31 f4       	brne	.+12     	; 0x2370 <_ZN6LSM30313enableDefaultEv+0x48>
    2364:	48 e0       	ldi	r20, 0x08	; 8
    2366:	63 e2       	ldi	r22, 0x23	; 35
    2368:	ce 01       	movw	r24, r28
    236a:	84 df       	rcall	.-248    	; 0x2274 <_ZN6LSM30311writeAccRegEhh>
    236c:	47 e4       	ldi	r20, 0x47	; 71
    236e:	05 c0       	rjmp	.+10     	; 0x237a <_ZN6LSM30313enableDefaultEv+0x52>
    2370:	40 e0       	ldi	r20, 0x00	; 0
    2372:	63 e2       	ldi	r22, 0x23	; 35
    2374:	ce 01       	movw	r24, r28
    2376:	7e df       	rcall	.-260    	; 0x2274 <_ZN6LSM30311writeAccRegEhh>
    2378:	47 e2       	ldi	r20, 0x27	; 39
    237a:	60 e2       	ldi	r22, 0x20	; 32
    237c:	ce 01       	movw	r24, r28
    237e:	7a df       	rcall	.-268    	; 0x2274 <_ZN6LSM30311writeAccRegEhh>
    2380:	4c e0       	ldi	r20, 0x0C	; 12
    2382:	60 e0       	ldi	r22, 0x00	; 0
    2384:	ce 01       	movw	r24, r28
    2386:	9f df       	rcall	.-194    	; 0x22c6 <_ZN6LSM30311writeMagRegEhh>
    2388:	40 e2       	ldi	r20, 0x20	; 32
    238a:	61 e0       	ldi	r22, 0x01	; 1
    238c:	ce 01       	movw	r24, r28
    238e:	9b df       	rcall	.-202    	; 0x22c6 <_ZN6LSM30311writeMagRegEhh>
    2390:	40 e0       	ldi	r20, 0x00	; 0
    2392:	62 e0       	ldi	r22, 0x02	; 2
    2394:	ce 01       	movw	r24, r28
    2396:	df 91       	pop	r29
    2398:	cf 91       	pop	r28
    239a:	95 cf       	rjmp	.-214    	; 0x22c6 <_ZN6LSM30311writeMagRegEhh>

0000239c <_ZN6LSM3037readAccEv>:
    239c:	9f 92       	push	r9
    239e:	af 92       	push	r10
    23a0:	bf 92       	push	r11
    23a2:	cf 92       	push	r12
    23a4:	df 92       	push	r13
    23a6:	ef 92       	push	r14
    23a8:	ff 92       	push	r15
    23aa:	0f 93       	push	r16
    23ac:	1f 93       	push	r17
    23ae:	cf 93       	push	r28
    23b0:	df 93       	push	r29
    23b2:	ec 01       	movw	r28, r24
    23b4:	6a 8d       	ldd	r22, Y+26	; 0x1a
    23b6:	83 e0       	ldi	r24, 0x03	; 3
    23b8:	9f e0       	ldi	r25, 0x0F	; 15
    23ba:	0e 94 ad 1b 	call	0x375a	; 0x375a <_ZN7TwoWire17beginTransmissionEh>
    23be:	68 ea       	ldi	r22, 0xA8	; 168
    23c0:	70 e0       	ldi	r23, 0x00	; 0
    23c2:	83 e0       	ldi	r24, 0x03	; 3
    23c4:	9f e0       	ldi	r25, 0x0F	; 15
    23c6:	05 dc       	rcall	.-2038   	; 0x1bd2 <_ZN7TwoWire5writeEi>
    23c8:	83 e0       	ldi	r24, 0x03	; 3
    23ca:	9f e0       	ldi	r25, 0x0F	; 15
    23cc:	0e 94 c9 1b 	call	0x3792	; 0x3792 <_ZN7TwoWire15endTransmissionEv>
    23d0:	88 8f       	std	Y+24, r24	; 0x18
    23d2:	46 e0       	ldi	r20, 0x06	; 6
    23d4:	6a 8d       	ldd	r22, Y+26	; 0x1a
    23d6:	83 e0       	ldi	r24, 0x03	; 3
    23d8:	9f e0       	ldi	r25, 0x0F	; 15
    23da:	0e 94 ab 1b 	call	0x3756	; 0x3756 <_ZN7TwoWire11requestFromEhh>
    23de:	0e 94 e1 24 	call	0x49c2	; 0x49c2 <millis>
    23e2:	6b 01       	movw	r12, r22
    23e4:	83 e0       	ldi	r24, 0x03	; 3
    23e6:	9f e0       	ldi	r25, 0x0F	; 15
    23e8:	0e 94 01 1b 	call	0x3602	; 0x3602 <_ZN7TwoWire9availableEv>
    23ec:	06 97       	sbiw	r24, 0x06	; 6
    23ee:	84 f4       	brge	.+32     	; 0x2410 <_ZN6LSM3037readAccEv+0x74>
    23f0:	8b a1       	ldd	r24, Y+35	; 0x23
    23f2:	9c a1       	ldd	r25, Y+36	; 0x24
    23f4:	89 2b       	or	r24, r25
    23f6:	b1 f3       	breq	.-20     	; 0x23e4 <_ZN6LSM3037readAccEv+0x48>
    23f8:	0e 94 e1 24 	call	0x49c2	; 0x49c2 <millis>
    23fc:	6c 19       	sub	r22, r12
    23fe:	7d 09       	sbc	r23, r13
    2400:	8b a1       	ldd	r24, Y+35	; 0x23
    2402:	9c a1       	ldd	r25, Y+36	; 0x24
    2404:	86 17       	cp	r24, r22
    2406:	97 07       	cpc	r25, r23
    2408:	68 f7       	brcc	.-38     	; 0x23e4 <_ZN6LSM3037readAccEv+0x48>
    240a:	81 e0       	ldi	r24, 0x01	; 1
    240c:	8d a3       	std	Y+37, r24	; 0x25
    240e:	2c c0       	rjmp	.+88     	; 0x2468 <_ZN6LSM3037readAccEv+0xcc>
    2410:	83 e0       	ldi	r24, 0x03	; 3
    2412:	9f e0       	ldi	r25, 0x0F	; 15
    2414:	0e 94 09 1b 	call	0x3612	; 0x3612 <_ZN7TwoWire4readEv>
    2418:	a8 2e       	mov	r10, r24
    241a:	83 e0       	ldi	r24, 0x03	; 3
    241c:	9f e0       	ldi	r25, 0x0F	; 15
    241e:	0e 94 09 1b 	call	0x3612	; 0x3612 <_ZN7TwoWire4readEv>
    2422:	98 2e       	mov	r9, r24
    2424:	83 e0       	ldi	r24, 0x03	; 3
    2426:	9f e0       	ldi	r25, 0x0F	; 15
    2428:	0e 94 09 1b 	call	0x3612	; 0x3612 <_ZN7TwoWire4readEv>
    242c:	c8 2e       	mov	r12, r24
    242e:	83 e0       	ldi	r24, 0x03	; 3
    2430:	9f e0       	ldi	r25, 0x0F	; 15
    2432:	0e 94 09 1b 	call	0x3612	; 0x3612 <_ZN7TwoWire4readEv>
    2436:	b8 2e       	mov	r11, r24
    2438:	83 e0       	ldi	r24, 0x03	; 3
    243a:	9f e0       	ldi	r25, 0x0F	; 15
    243c:	0e 94 09 1b 	call	0x3612	; 0x3612 <_ZN7TwoWire4readEv>
    2440:	d8 2e       	mov	r13, r24
    2442:	83 e0       	ldi	r24, 0x03	; 3
    2444:	9f e0       	ldi	r25, 0x0F	; 15
    2446:	0e 94 09 1b 	call	0x3612	; 0x3612 <_ZN7TwoWire4readEv>
    244a:	f9 2c       	mov	r15, r9
    244c:	e1 2c       	mov	r14, r1
    244e:	ea 28       	or	r14, r10
    2450:	f9 82       	std	Y+1, r15	; 0x01
    2452:	e8 82       	st	Y, r14
    2454:	1b 2d       	mov	r17, r11
    2456:	00 e0       	ldi	r16, 0x00	; 0
    2458:	0c 29       	or	r16, r12
    245a:	1b 83       	std	Y+3, r17	; 0x03
    245c:	0a 83       	std	Y+2, r16	; 0x02
    245e:	98 2f       	mov	r25, r24
    2460:	88 27       	eor	r24, r24
    2462:	8d 29       	or	r24, r13
    2464:	9d 83       	std	Y+5, r25	; 0x05
    2466:	8c 83       	std	Y+4, r24	; 0x04
    2468:	df 91       	pop	r29
    246a:	cf 91       	pop	r28
    246c:	1f 91       	pop	r17
    246e:	0f 91       	pop	r16
    2470:	ff 90       	pop	r15
    2472:	ef 90       	pop	r14
    2474:	df 90       	pop	r13
    2476:	cf 90       	pop	r12
    2478:	bf 90       	pop	r11
    247a:	af 90       	pop	r10
    247c:	9f 90       	pop	r9
    247e:	08 95       	ret

00002480 <_ZN6LSM3037readMagEv>:
    2480:	cf 92       	push	r12
    2482:	df 92       	push	r13
    2484:	ef 92       	push	r14
    2486:	ff 92       	push	r15
    2488:	0f 93       	push	r16
    248a:	1f 93       	push	r17
    248c:	cf 93       	push	r28
    248e:	df 93       	push	r29
    2490:	ec 01       	movw	r28, r24
    2492:	6b 8d       	ldd	r22, Y+27	; 0x1b
    2494:	83 e0       	ldi	r24, 0x03	; 3
    2496:	9f e0       	ldi	r25, 0x0F	; 15
    2498:	0e 94 ad 1b 	call	0x375a	; 0x375a <_ZN7TwoWire17beginTransmissionEh>
    249c:	89 8d       	ldd	r24, Y+25	; 0x19
    249e:	83 30       	cpi	r24, 0x03	; 3
    24a0:	31 f4       	brne	.+12     	; 0x24ae <_ZN6LSM3037readMagEv+0x2e>
    24a2:	6e 8d       	ldd	r22, Y+30	; 0x1e
    24a4:	77 27       	eor	r23, r23
    24a6:	67 fd       	sbrc	r22, 7
    24a8:	70 95       	com	r23
    24aa:	60 68       	ori	r22, 0x80	; 128
    24ac:	04 c0       	rjmp	.+8      	; 0x24b6 <_ZN6LSM3037readMagEv+0x36>
    24ae:	6d 8d       	ldd	r22, Y+29	; 0x1d
    24b0:	77 27       	eor	r23, r23
    24b2:	67 fd       	sbrc	r22, 7
    24b4:	70 95       	com	r23
    24b6:	83 e0       	ldi	r24, 0x03	; 3
    24b8:	9f e0       	ldi	r25, 0x0F	; 15
    24ba:	8b db       	rcall	.-2282   	; 0x1bd2 <_ZN7TwoWire5writeEi>
    24bc:	83 e0       	ldi	r24, 0x03	; 3
    24be:	9f e0       	ldi	r25, 0x0F	; 15
    24c0:	0e 94 c9 1b 	call	0x3792	; 0x3792 <_ZN7TwoWire15endTransmissionEv>
    24c4:	88 8f       	std	Y+24, r24	; 0x18
    24c6:	46 e0       	ldi	r20, 0x06	; 6
    24c8:	6b 8d       	ldd	r22, Y+27	; 0x1b
    24ca:	83 e0       	ldi	r24, 0x03	; 3
    24cc:	9f e0       	ldi	r25, 0x0F	; 15
    24ce:	0e 94 ab 1b 	call	0x3756	; 0x3756 <_ZN7TwoWire11requestFromEhh>
    24d2:	0e 94 e1 24 	call	0x49c2	; 0x49c2 <millis>
    24d6:	8b 01       	movw	r16, r22
    24d8:	83 e0       	ldi	r24, 0x03	; 3
    24da:	9f e0       	ldi	r25, 0x0F	; 15
    24dc:	0e 94 01 1b 	call	0x3602	; 0x3602 <_ZN7TwoWire9availableEv>
    24e0:	06 97       	sbiw	r24, 0x06	; 6
    24e2:	84 f4       	brge	.+32     	; 0x2504 <_ZN6LSM3037readMagEv+0x84>
    24e4:	8b a1       	ldd	r24, Y+35	; 0x23
    24e6:	9c a1       	ldd	r25, Y+36	; 0x24
    24e8:	89 2b       	or	r24, r25
    24ea:	b1 f3       	breq	.-20     	; 0x24d8 <_ZN6LSM3037readMagEv+0x58>
    24ec:	0e 94 e1 24 	call	0x49c2	; 0x49c2 <millis>
    24f0:	60 1b       	sub	r22, r16
    24f2:	71 0b       	sbc	r23, r17
    24f4:	8b a1       	ldd	r24, Y+35	; 0x23
    24f6:	9c a1       	ldd	r25, Y+36	; 0x24
    24f8:	86 17       	cp	r24, r22
    24fa:	97 07       	cpc	r25, r23
    24fc:	68 f7       	brcc	.-38     	; 0x24d8 <_ZN6LSM3037readMagEv+0x58>
    24fe:	81 e0       	ldi	r24, 0x01	; 1
    2500:	8d a3       	std	Y+37, r24	; 0x25
    2502:	67 c0       	rjmp	.+206    	; 0x25d2 <_ZN6LSM3037readMagEv+0x152>
    2504:	89 8d       	ldd	r24, Y+25	; 0x19
    2506:	83 30       	cpi	r24, 0x03	; 3
    2508:	f9 f4       	brne	.+62     	; 0x2548 <_ZN6LSM3037readMagEv+0xc8>
    250a:	83 e0       	ldi	r24, 0x03	; 3
    250c:	9f e0       	ldi	r25, 0x0F	; 15
    250e:	0e 94 09 1b 	call	0x3612	; 0x3612 <_ZN7TwoWire4readEv>
    2512:	c8 2e       	mov	r12, r24
    2514:	83 e0       	ldi	r24, 0x03	; 3
    2516:	9f e0       	ldi	r25, 0x0F	; 15
    2518:	0e 94 09 1b 	call	0x3612	; 0x3612 <_ZN7TwoWire4readEv>
    251c:	d8 2e       	mov	r13, r24
    251e:	83 e0       	ldi	r24, 0x03	; 3
    2520:	9f e0       	ldi	r25, 0x0F	; 15
    2522:	0e 94 09 1b 	call	0x3612	; 0x3612 <_ZN7TwoWire4readEv>
    2526:	e8 2e       	mov	r14, r24
    2528:	83 e0       	ldi	r24, 0x03	; 3
    252a:	9f e0       	ldi	r25, 0x0F	; 15
    252c:	0e 94 09 1b 	call	0x3612	; 0x3612 <_ZN7TwoWire4readEv>
    2530:	18 2f       	mov	r17, r24
    2532:	83 e0       	ldi	r24, 0x03	; 3
    2534:	9f e0       	ldi	r25, 0x0F	; 15
    2536:	0e 94 09 1b 	call	0x3612	; 0x3612 <_ZN7TwoWire4readEv>
    253a:	f8 2e       	mov	r15, r24
    253c:	83 e0       	ldi	r24, 0x03	; 3
    253e:	9f e0       	ldi	r25, 0x0F	; 15
    2540:	0e 94 09 1b 	call	0x3612	; 0x3612 <_ZN7TwoWire4readEv>
    2544:	08 2f       	mov	r16, r24
    2546:	36 c0       	rjmp	.+108    	; 0x25b4 <_ZN6LSM3037readMagEv+0x134>
    2548:	83 e0       	ldi	r24, 0x03	; 3
    254a:	9f e0       	ldi	r25, 0x0F	; 15
    254c:	0e 94 09 1b 	call	0x3612	; 0x3612 <_ZN7TwoWire4readEv>
    2550:	d8 2e       	mov	r13, r24
    2552:	83 e0       	ldi	r24, 0x03	; 3
    2554:	9f e0       	ldi	r25, 0x0F	; 15
    2556:	0e 94 09 1b 	call	0x3612	; 0x3612 <_ZN7TwoWire4readEv>
    255a:	c8 2e       	mov	r12, r24
    255c:	89 8d       	ldd	r24, Y+25	; 0x19
    255e:	81 11       	cpse	r24, r1
    2560:	15 c0       	rjmp	.+42     	; 0x258c <_ZN6LSM3037readMagEv+0x10c>
    2562:	83 e0       	ldi	r24, 0x03	; 3
    2564:	9f e0       	ldi	r25, 0x0F	; 15
    2566:	0e 94 09 1b 	call	0x3612	; 0x3612 <_ZN7TwoWire4readEv>
    256a:	18 2f       	mov	r17, r24
    256c:	83 e0       	ldi	r24, 0x03	; 3
    256e:	9f e0       	ldi	r25, 0x0F	; 15
    2570:	0e 94 09 1b 	call	0x3612	; 0x3612 <_ZN7TwoWire4readEv>
    2574:	e8 2e       	mov	r14, r24
    2576:	83 e0       	ldi	r24, 0x03	; 3
    2578:	9f e0       	ldi	r25, 0x0F	; 15
    257a:	0e 94 09 1b 	call	0x3612	; 0x3612 <_ZN7TwoWire4readEv>
    257e:	08 2f       	mov	r16, r24
    2580:	83 e0       	ldi	r24, 0x03	; 3
    2582:	9f e0       	ldi	r25, 0x0F	; 15
    2584:	0e 94 09 1b 	call	0x3612	; 0x3612 <_ZN7TwoWire4readEv>
    2588:	f8 2e       	mov	r15, r24
    258a:	14 c0       	rjmp	.+40     	; 0x25b4 <_ZN6LSM3037readMagEv+0x134>
    258c:	83 e0       	ldi	r24, 0x03	; 3
    258e:	9f e0       	ldi	r25, 0x0F	; 15
    2590:	0e 94 09 1b 	call	0x3612	; 0x3612 <_ZN7TwoWire4readEv>
    2594:	08 2f       	mov	r16, r24
    2596:	83 e0       	ldi	r24, 0x03	; 3
    2598:	9f e0       	ldi	r25, 0x0F	; 15
    259a:	0e 94 09 1b 	call	0x3612	; 0x3612 <_ZN7TwoWire4readEv>
    259e:	f8 2e       	mov	r15, r24
    25a0:	83 e0       	ldi	r24, 0x03	; 3
    25a2:	9f e0       	ldi	r25, 0x0F	; 15
    25a4:	0e 94 09 1b 	call	0x3612	; 0x3612 <_ZN7TwoWire4readEv>
    25a8:	18 2f       	mov	r17, r24
    25aa:	83 e0       	ldi	r24, 0x03	; 3
    25ac:	9f e0       	ldi	r25, 0x0F	; 15
    25ae:	0e 94 09 1b 	call	0x3612	; 0x3612 <_ZN7TwoWire4readEv>
    25b2:	e8 2e       	mov	r14, r24
    25b4:	6c 2d       	mov	r22, r12
    25b6:	70 e0       	ldi	r23, 0x00	; 0
    25b8:	7d 29       	or	r23, r13
    25ba:	7f 83       	std	Y+7, r23	; 0x07
    25bc:	6e 83       	std	Y+6, r22	; 0x06
    25be:	4e 2d       	mov	r20, r14
    25c0:	50 e0       	ldi	r21, 0x00	; 0
    25c2:	51 2b       	or	r21, r17
    25c4:	59 87       	std	Y+9, r21	; 0x09
    25c6:	48 87       	std	Y+8, r20	; 0x08
    25c8:	2f 2d       	mov	r18, r15
    25ca:	30 e0       	ldi	r19, 0x00	; 0
    25cc:	30 2b       	or	r19, r16
    25ce:	3b 87       	std	Y+11, r19	; 0x0b
    25d0:	2a 87       	std	Y+10, r18	; 0x0a
    25d2:	df 91       	pop	r29
    25d4:	cf 91       	pop	r28
    25d6:	1f 91       	pop	r17
    25d8:	0f 91       	pop	r16
    25da:	ff 90       	pop	r15
    25dc:	ef 90       	pop	r14
    25de:	df 90       	pop	r13
    25e0:	cf 90       	pop	r12
    25e2:	08 95       	ret

000025e4 <_ZN6LSM3037testRegEhNS_7regAddrE>:
    25e4:	1f 93       	push	r17
    25e6:	cf 93       	push	r28
    25e8:	df 93       	push	r29
    25ea:	1f 92       	push	r1
    25ec:	cd b7       	in	r28, 0x3d	; 61
    25ee:	de b7       	in	r29, 0x3e	; 62
    25f0:	16 2f       	mov	r17, r22
    25f2:	83 e0       	ldi	r24, 0x03	; 3
    25f4:	9f e0       	ldi	r25, 0x0F	; 15
    25f6:	49 83       	std	Y+1, r20	; 0x01
    25f8:	0e 94 ad 1b 	call	0x375a	; 0x375a <_ZN7TwoWire17beginTransmissionEh>
    25fc:	49 81       	ldd	r20, Y+1	; 0x01
    25fe:	64 2f       	mov	r22, r20
    2600:	83 e0       	ldi	r24, 0x03	; 3
    2602:	9f e0       	ldi	r25, 0x0F	; 15
    2604:	0e 94 58 1b 	call	0x36b0	; 0x36b0 <_ZN7TwoWire5writeEh>
    2608:	83 e0       	ldi	r24, 0x03	; 3
    260a:	9f e0       	ldi	r25, 0x0F	; 15
    260c:	0e 94 c9 1b 	call	0x3792	; 0x3792 <_ZN7TwoWire15endTransmissionEv>
    2610:	81 11       	cpse	r24, r1
    2612:	12 c0       	rjmp	.+36     	; 0x2638 <_ZN6LSM3037testRegEhNS_7regAddrE+0x54>
    2614:	41 e0       	ldi	r20, 0x01	; 1
    2616:	61 2f       	mov	r22, r17
    2618:	83 e0       	ldi	r24, 0x03	; 3
    261a:	9f e0       	ldi	r25, 0x0F	; 15
    261c:	0e 94 ab 1b 	call	0x3756	; 0x3756 <_ZN7TwoWire11requestFromEhh>
    2620:	83 e0       	ldi	r24, 0x03	; 3
    2622:	9f e0       	ldi	r25, 0x0F	; 15
    2624:	ee d7       	rcall	.+4060   	; 0x3602 <_ZN7TwoWire9availableEv>
    2626:	89 2b       	or	r24, r25
    2628:	39 f0       	breq	.+14     	; 0x2638 <_ZN6LSM3037testRegEhNS_7regAddrE+0x54>
    262a:	83 e0       	ldi	r24, 0x03	; 3
    262c:	9f e0       	ldi	r25, 0x0F	; 15
    262e:	0f 90       	pop	r0
    2630:	df 91       	pop	r29
    2632:	cf 91       	pop	r28
    2634:	1f 91       	pop	r17
    2636:	ed c7       	rjmp	.+4058   	; 0x3612 <_ZN7TwoWire4readEv>
    2638:	8f ef       	ldi	r24, 0xFF	; 255
    263a:	9f ef       	ldi	r25, 0xFF	; 255
    263c:	0f 90       	pop	r0
    263e:	df 91       	pop	r29
    2640:	cf 91       	pop	r28
    2642:	1f 91       	pop	r17
    2644:	08 95       	ret

00002646 <_ZN6LSM3034initENS_10deviceTypeENS_8sa0StateE>:
    2646:	0f 93       	push	r16
    2648:	1f 93       	push	r17
    264a:	cf 93       	push	r28
    264c:	df 93       	push	r29
    264e:	ec 01       	movw	r28, r24
    2650:	16 2f       	mov	r17, r22
    2652:	04 2f       	mov	r16, r20
    2654:	64 30       	cpi	r22, 0x04	; 4
    2656:	19 f0       	breq	.+6      	; 0x265e <_ZN6LSM3034initENS_10deviceTypeENS_8sa0StateE+0x18>
    2658:	42 30       	cpi	r20, 0x02	; 2
    265a:	09 f0       	breq	.+2      	; 0x265e <_ZN6LSM3034initENS_10deviceTypeENS_8sa0StateE+0x18>
    265c:	3b c0       	rjmp	.+118    	; 0x26d4 <_ZN6LSM3034initENS_10deviceTypeENS_8sa0StateE+0x8e>
    265e:	8d ef       	ldi	r24, 0xFD	; 253
    2660:	81 0f       	add	r24, r17
    2662:	82 30       	cpi	r24, 0x02	; 2
    2664:	08 f0       	brcs	.+2      	; 0x2668 <_ZN6LSM3034initENS_10deviceTypeENS_8sa0StateE+0x22>
    2666:	81 c0       	rjmp	.+258    	; 0x276a <_ZN6LSM3034initENS_10deviceTypeENS_8sa0StateE+0x124>
    2668:	00 23       	and	r16, r16
    266a:	51 f0       	breq	.+20     	; 0x2680 <_ZN6LSM3034initENS_10deviceTypeENS_8sa0StateE+0x3a>
    266c:	4f e0       	ldi	r20, 0x0F	; 15
    266e:	6d e1       	ldi	r22, 0x1D	; 29
    2670:	ce 01       	movw	r24, r28
    2672:	b8 df       	rcall	.-144    	; 0x25e4 <_ZN6LSM3037testRegEhNS_7regAddrE>
    2674:	89 34       	cpi	r24, 0x49	; 73
    2676:	91 05       	cpc	r25, r1
    2678:	09 f4       	brne	.+2      	; 0x267c <_ZN6LSM3034initENS_10deviceTypeENS_8sa0StateE+0x36>
    267a:	72 c0       	rjmp	.+228    	; 0x2760 <_ZN6LSM3034initENS_10deviceTypeENS_8sa0StateE+0x11a>
    267c:	01 30       	cpi	r16, 0x01	; 1
    267e:	41 f0       	breq	.+16     	; 0x2690 <_ZN6LSM3034initENS_10deviceTypeENS_8sa0StateE+0x4a>
    2680:	4f e0       	ldi	r20, 0x0F	; 15
    2682:	6e e1       	ldi	r22, 0x1E	; 30
    2684:	ce 01       	movw	r24, r28
    2686:	ae df       	rcall	.-164    	; 0x25e4 <_ZN6LSM3037testRegEhNS_7regAddrE>
    2688:	89 34       	cpi	r24, 0x49	; 73
    268a:	91 05       	cpc	r25, r1
    268c:	09 f4       	brne	.+2      	; 0x2690 <_ZN6LSM3034initENS_10deviceTypeENS_8sa0StateE+0x4a>
    268e:	6a c0       	rjmp	.+212    	; 0x2764 <_ZN6LSM3034initENS_10deviceTypeENS_8sa0StateE+0x11e>
    2690:	14 30       	cpi	r17, 0x04	; 4
    2692:	09 f0       	breq	.+2      	; 0x2696 <_ZN6LSM3034initENS_10deviceTypeENS_8sa0StateE+0x50>
    2694:	83 c0       	rjmp	.+262    	; 0x279c <_ZN6LSM3034initENS_10deviceTypeENS_8sa0StateE+0x156>
    2696:	00 23       	and	r16, r16
    2698:	49 f0       	breq	.+18     	; 0x26ac <_ZN6LSM3034initENS_10deviceTypeENS_8sa0StateE+0x66>
    269a:	40 e2       	ldi	r20, 0x20	; 32
    269c:	69 e1       	ldi	r22, 0x19	; 25
    269e:	ce 01       	movw	r24, r28
    26a0:	a1 df       	rcall	.-190    	; 0x25e4 <_ZN6LSM3037testRegEhNS_7regAddrE>
    26a2:	01 96       	adiw	r24, 0x01	; 1
    26a4:	59 f4       	brne	.+22     	; 0x26bc <_ZN6LSM3034initENS_10deviceTypeENS_8sa0StateE+0x76>
    26a6:	01 30       	cpi	r16, 0x01	; 1
    26a8:	09 f4       	brne	.+2      	; 0x26ac <_ZN6LSM3034initENS_10deviceTypeENS_8sa0StateE+0x66>
    26aa:	75 c0       	rjmp	.+234    	; 0x2796 <_ZN6LSM3034initENS_10deviceTypeENS_8sa0StateE+0x150>
    26ac:	40 e2       	ldi	r20, 0x20	; 32
    26ae:	68 e1       	ldi	r22, 0x18	; 24
    26b0:	ce 01       	movw	r24, r28
    26b2:	98 df       	rcall	.-208    	; 0x25e4 <_ZN6LSM3037testRegEhNS_7regAddrE>
    26b4:	01 96       	adiw	r24, 0x01	; 1
    26b6:	09 f0       	breq	.+2      	; 0x26ba <_ZN6LSM3034initENS_10deviceTypeENS_8sa0StateE+0x74>
    26b8:	62 c0       	rjmp	.+196    	; 0x277e <_ZN6LSM3034initENS_10deviceTypeENS_8sa0StateE+0x138>
    26ba:	6d c0       	rjmp	.+218    	; 0x2796 <_ZN6LSM3034initENS_10deviceTypeENS_8sa0StateE+0x150>
    26bc:	14 30       	cpi	r17, 0x04	; 4
    26be:	09 f0       	breq	.+2      	; 0x26c2 <_ZN6LSM3034initENS_10deviceTypeENS_8sa0StateE+0x7c>
    26c0:	5c c0       	rjmp	.+184    	; 0x277a <_ZN6LSM3034initENS_10deviceTypeENS_8sa0StateE+0x134>
    26c2:	4f e0       	ldi	r20, 0x0F	; 15
    26c4:	6e e1       	ldi	r22, 0x1E	; 30
    26c6:	ce 01       	movw	r24, r28
    26c8:	8d df       	rcall	.-230    	; 0x25e4 <_ZN6LSM3037testRegEhNS_7regAddrE>
    26ca:	01 e0       	ldi	r16, 0x01	; 1
    26cc:	cc 97       	sbiw	r24, 0x3c	; 60
    26ce:	09 f0       	breq	.+2      	; 0x26d2 <_ZN6LSM3034initENS_10deviceTypeENS_8sa0StateE+0x8c>
    26d0:	67 c0       	rjmp	.+206    	; 0x27a0 <_ZN6LSM3034initENS_10deviceTypeENS_8sa0StateE+0x15a>
    26d2:	12 e0       	ldi	r17, 0x02	; 2
    26d4:	19 8f       	std	Y+25, r17	; 0x19
    26d6:	11 30       	cpi	r17, 0x01	; 1
    26d8:	c9 f0       	breq	.+50     	; 0x270c <_ZN6LSM3034initENS_10deviceTypeENS_8sa0StateE+0xc6>
    26da:	60 f1       	brcs	.+88     	; 0x2734 <_ZN6LSM3034initENS_10deviceTypeENS_8sa0StateE+0xee>
    26dc:	12 30       	cpi	r17, 0x02	; 2
    26de:	c1 f0       	breq	.+48     	; 0x2710 <_ZN6LSM3034initENS_10deviceTypeENS_8sa0StateE+0xca>
    26e0:	13 30       	cpi	r17, 0x03	; 3
    26e2:	e1 f5       	brne	.+120    	; 0x275c <_ZN6LSM3034initENS_10deviceTypeENS_8sa0StateE+0x116>
    26e4:	01 30       	cpi	r16, 0x01	; 1
    26e6:	11 f4       	brne	.+4      	; 0x26ec <_ZN6LSM3034initENS_10deviceTypeENS_8sa0StateE+0xa6>
    26e8:	8d e1       	ldi	r24, 0x1D	; 29
    26ea:	01 c0       	rjmp	.+2      	; 0x26ee <_ZN6LSM3034initENS_10deviceTypeENS_8sa0StateE+0xa8>
    26ec:	8e e1       	ldi	r24, 0x1E	; 30
    26ee:	8b 8f       	std	Y+27, r24	; 0x1b
    26f0:	8a 8f       	std	Y+26, r24	; 0x1a
    26f2:	88 e0       	ldi	r24, 0x08	; 8
    26f4:	8e 8f       	std	Y+30, r24	; 0x1e
    26f6:	89 e0       	ldi	r24, 0x09	; 9
    26f8:	8d 8f       	std	Y+29, r24	; 0x1d
    26fa:	8a e0       	ldi	r24, 0x0A	; 10
    26fc:	88 a3       	std	Y+32, r24	; 0x20
    26fe:	8b e0       	ldi	r24, 0x0B	; 11
    2700:	8f 8f       	std	Y+31, r24	; 0x1f
    2702:	8c e0       	ldi	r24, 0x0C	; 12
    2704:	8a a3       	std	Y+34, r24	; 0x22
    2706:	8d e0       	ldi	r24, 0x0D	; 13
    2708:	89 a3       	std	Y+33, r24	; 0x21
    270a:	28 c0       	rjmp	.+80     	; 0x275c <_ZN6LSM3034initENS_10deviceTypeENS_8sa0StateE+0x116>
    270c:	01 30       	cpi	r16, 0x01	; 1
    270e:	11 f4       	brne	.+4      	; 0x2714 <_ZN6LSM3034initENS_10deviceTypeENS_8sa0StateE+0xce>
    2710:	89 e1       	ldi	r24, 0x19	; 25
    2712:	01 c0       	rjmp	.+2      	; 0x2716 <_ZN6LSM3034initENS_10deviceTypeENS_8sa0StateE+0xd0>
    2714:	88 e1       	ldi	r24, 0x18	; 24
    2716:	8a 8f       	std	Y+26, r24	; 0x1a
    2718:	8e e1       	ldi	r24, 0x1E	; 30
    271a:	8b 8f       	std	Y+27, r24	; 0x1b
    271c:	83 e0       	ldi	r24, 0x03	; 3
    271e:	8d 8f       	std	Y+29, r24	; 0x1d
    2720:	84 e0       	ldi	r24, 0x04	; 4
    2722:	8e 8f       	std	Y+30, r24	; 0x1e
    2724:	87 e0       	ldi	r24, 0x07	; 7
    2726:	8f 8f       	std	Y+31, r24	; 0x1f
    2728:	88 e0       	ldi	r24, 0x08	; 8
    272a:	88 a3       	std	Y+32, r24	; 0x20
    272c:	85 e0       	ldi	r24, 0x05	; 5
    272e:	89 a3       	std	Y+33, r24	; 0x21
    2730:	86 e0       	ldi	r24, 0x06	; 6
    2732:	13 c0       	rjmp	.+38     	; 0x275a <_ZN6LSM3034initENS_10deviceTypeENS_8sa0StateE+0x114>
    2734:	01 30       	cpi	r16, 0x01	; 1
    2736:	11 f4       	brne	.+4      	; 0x273c <_ZN6LSM3034initENS_10deviceTypeENS_8sa0StateE+0xf6>
    2738:	89 e1       	ldi	r24, 0x19	; 25
    273a:	01 c0       	rjmp	.+2      	; 0x273e <_ZN6LSM3034initENS_10deviceTypeENS_8sa0StateE+0xf8>
    273c:	88 e1       	ldi	r24, 0x18	; 24
    273e:	8a 8f       	std	Y+26, r24	; 0x1a
    2740:	8e e1       	ldi	r24, 0x1E	; 30
    2742:	8b 8f       	std	Y+27, r24	; 0x1b
    2744:	83 e0       	ldi	r24, 0x03	; 3
    2746:	8d 8f       	std	Y+29, r24	; 0x1d
    2748:	84 e0       	ldi	r24, 0x04	; 4
    274a:	8e 8f       	std	Y+30, r24	; 0x1e
    274c:	85 e0       	ldi	r24, 0x05	; 5
    274e:	8f 8f       	std	Y+31, r24	; 0x1f
    2750:	86 e0       	ldi	r24, 0x06	; 6
    2752:	88 a3       	std	Y+32, r24	; 0x20
    2754:	87 e0       	ldi	r24, 0x07	; 7
    2756:	89 a3       	std	Y+33, r24	; 0x21
    2758:	88 e0       	ldi	r24, 0x08	; 8
    275a:	8a a3       	std	Y+34, r24	; 0x22
    275c:	81 e0       	ldi	r24, 0x01	; 1
    275e:	22 c0       	rjmp	.+68     	; 0x27a4 <_ZN6LSM3034initENS_10deviceTypeENS_8sa0StateE+0x15e>
    2760:	01 e0       	ldi	r16, 0x01	; 1
    2762:	01 c0       	rjmp	.+2      	; 0x2766 <_ZN6LSM3034initENS_10deviceTypeENS_8sa0StateE+0x120>
    2764:	00 e0       	ldi	r16, 0x00	; 0
    2766:	13 e0       	ldi	r17, 0x03	; 3
    2768:	b5 cf       	rjmp	.-150    	; 0x26d4 <_ZN6LSM3034initENS_10deviceTypeENS_8sa0StateE+0x8e>
    276a:	13 30       	cpi	r17, 0x03	; 3
    276c:	08 f4       	brcc	.+2      	; 0x2770 <_ZN6LSM3034initENS_10deviceTypeENS_8sa0StateE+0x12a>
    276e:	93 cf       	rjmp	.-218    	; 0x2696 <_ZN6LSM3034initENS_10deviceTypeENS_8sa0StateE+0x50>
    2770:	02 30       	cpi	r16, 0x02	; 2
    2772:	09 f0       	breq	.+2      	; 0x2776 <_ZN6LSM3034initENS_10deviceTypeENS_8sa0StateE+0x130>
    2774:	af cf       	rjmp	.-162    	; 0x26d4 <_ZN6LSM3034initENS_10deviceTypeENS_8sa0StateE+0x8e>
    2776:	80 e0       	ldi	r24, 0x00	; 0
    2778:	15 c0       	rjmp	.+42     	; 0x27a4 <_ZN6LSM3034initENS_10deviceTypeENS_8sa0StateE+0x15e>
    277a:	01 e0       	ldi	r16, 0x01	; 1
    277c:	ab cf       	rjmp	.-170    	; 0x26d4 <_ZN6LSM3034initENS_10deviceTypeENS_8sa0StateE+0x8e>
    277e:	14 30       	cpi	r17, 0x04	; 4
    2780:	41 f4       	brne	.+16     	; 0x2792 <_ZN6LSM3034initENS_10deviceTypeENS_8sa0StateE+0x14c>
    2782:	4f e0       	ldi	r20, 0x0F	; 15
    2784:	6e e1       	ldi	r22, 0x1E	; 30
    2786:	ce 01       	movw	r24, r28
    2788:	2d df       	rcall	.-422    	; 0x25e4 <_ZN6LSM3037testRegEhNS_7regAddrE>
    278a:	11 e0       	ldi	r17, 0x01	; 1
    278c:	cc 97       	sbiw	r24, 0x3c	; 60
    278e:	09 f0       	breq	.+2      	; 0x2792 <_ZN6LSM3034initENS_10deviceTypeENS_8sa0StateE+0x14c>
    2790:	10 e0       	ldi	r17, 0x00	; 0
    2792:	00 e0       	ldi	r16, 0x00	; 0
    2794:	9f cf       	rjmp	.-194    	; 0x26d4 <_ZN6LSM3034initENS_10deviceTypeENS_8sa0StateE+0x8e>
    2796:	14 30       	cpi	r17, 0x04	; 4
    2798:	71 f3       	breq	.-36     	; 0x2776 <_ZN6LSM3034initENS_10deviceTypeENS_8sa0StateE+0x130>
    279a:	ea cf       	rjmp	.-44     	; 0x2770 <_ZN6LSM3034initENS_10deviceTypeENS_8sa0StateE+0x12a>
    279c:	13 e0       	ldi	r17, 0x03	; 3
    279e:	e8 cf       	rjmp	.-48     	; 0x2770 <_ZN6LSM3034initENS_10deviceTypeENS_8sa0StateE+0x12a>
    27a0:	10 e0       	ldi	r17, 0x00	; 0
    27a2:	98 cf       	rjmp	.-208    	; 0x26d4 <_ZN6LSM3034initENS_10deviceTypeENS_8sa0StateE+0x8e>
    27a4:	df 91       	pop	r29
    27a6:	cf 91       	pop	r28
    27a8:	1f 91       	pop	r17
    27aa:	0f 91       	pop	r16
    27ac:	08 95       	ret

000027ae <_ZN7NewPingC1Ehhj>:
    27ae:	cf 93       	push	r28
    27b0:	df 93       	push	r29
    27b2:	dc 01       	movw	r26, r24
    27b4:	70 e0       	ldi	r23, 0x00	; 0
    27b6:	fb 01       	movw	r30, r22
    27b8:	ea 5a       	subi	r30, 0xAA	; 170
    27ba:	fd 4f       	sbci	r31, 0xFD	; 253
    27bc:	e4 91       	lpm	r30, Z
    27be:	14 96       	adiw	r26, 0x04	; 4
    27c0:	ec 93       	st	X, r30
    27c2:	14 97       	sbiw	r26, 0x04	; 4
    27c4:	84 2f       	mov	r24, r20
    27c6:	90 e0       	ldi	r25, 0x00	; 0
    27c8:	fc 01       	movw	r30, r24
    27ca:	ea 5a       	subi	r30, 0xAA	; 170
    27cc:	fd 4f       	sbci	r31, 0xFD	; 253
    27ce:	e4 91       	lpm	r30, Z
    27d0:	15 96       	adiw	r26, 0x05	; 5
    27d2:	ec 93       	st	X, r30
    27d4:	15 97       	sbiw	r26, 0x05	; 5
    27d6:	64 56       	subi	r22, 0x64	; 100
    27d8:	7d 4f       	sbci	r23, 0xFD	; 253
    27da:	fb 01       	movw	r30, r22
    27dc:	c4 91       	lpm	r28, Z
    27de:	d0 e0       	ldi	r29, 0x00	; 0
    27e0:	cc 0f       	add	r28, r28
    27e2:	dd 1f       	adc	r29, r29
    27e4:	c4 50       	subi	r28, 0x04	; 4
    27e6:	dd 4f       	sbci	r29, 0xFD	; 253
    27e8:	fe 01       	movw	r30, r28
    27ea:	45 91       	lpm	r20, Z+
    27ec:	54 91       	lpm	r21, Z
    27ee:	17 96       	adiw	r26, 0x07	; 7
    27f0:	5c 93       	st	X, r21
    27f2:	4e 93       	st	-X, r20
    27f4:	16 97       	sbiw	r26, 0x06	; 6
    27f6:	fc 01       	movw	r30, r24
    27f8:	e4 56       	subi	r30, 0x64	; 100
    27fa:	fd 4f       	sbci	r31, 0xFD	; 253
    27fc:	84 91       	lpm	r24, Z
    27fe:	90 e0       	ldi	r25, 0x00	; 0
    2800:	88 0f       	add	r24, r24
    2802:	99 1f       	adc	r25, r25
    2804:	8e 51       	subi	r24, 0x1E	; 30
    2806:	9d 4f       	sbci	r25, 0xFD	; 253
    2808:	fc 01       	movw	r30, r24
    280a:	45 91       	lpm	r20, Z+
    280c:	54 91       	lpm	r21, Z
    280e:	19 96       	adiw	r26, 0x09	; 9
    2810:	5c 93       	st	X, r21
    2812:	4e 93       	st	-X, r20
    2814:	18 97       	sbiw	r26, 0x08	; 8
    2816:	fb 01       	movw	r30, r22
    2818:	64 91       	lpm	r22, Z
    281a:	e6 2f       	mov	r30, r22
    281c:	f0 e0       	ldi	r31, 0x00	; 0
    281e:	ee 0f       	add	r30, r30
    2820:	ff 1f       	adc	r31, r31
    2822:	ea 5e       	subi	r30, 0xEA	; 234
    2824:	fc 4f       	sbci	r31, 0xFC	; 252
    2826:	85 91       	lpm	r24, Z+
    2828:	94 91       	lpm	r25, Z
    282a:	1b 96       	adiw	r26, 0x0b	; 11
    282c:	9c 93       	st	X, r25
    282e:	8e 93       	st	-X, r24
    2830:	1a 97       	sbiw	r26, 0x0a	; 10
    2832:	2f 5f       	subi	r18, 0xFF	; 255
    2834:	3f 4f       	sbci	r19, 0xFF	; 255
    2836:	49 e3       	ldi	r20, 0x39	; 57
    2838:	42 9f       	mul	r20, r18
    283a:	c0 01       	movw	r24, r0
    283c:	43 9f       	mul	r20, r19
    283e:	90 0d       	add	r25, r0
    2840:	11 24       	eor	r1, r1
    2842:	8e 38       	cpi	r24, 0x8E	; 142
    2844:	ff e6       	ldi	r31, 0x6F	; 111
    2846:	9f 07       	cpc	r25, r31
    2848:	10 f0       	brcs	.+4      	; 0x284e <_ZN7NewPingC1Ehhj+0xa0>
    284a:	8d e8       	ldi	r24, 0x8D	; 141
    284c:	9f e6       	ldi	r25, 0x6F	; 111
    284e:	1d 96       	adiw	r26, 0x0d	; 13
    2850:	9c 93       	st	X, r25
    2852:	8e 93       	st	-X, r24
    2854:	1c 97       	sbiw	r26, 0x0c	; 12
    2856:	df 91       	pop	r29
    2858:	cf 91       	pop	r28
    285a:	08 95       	ret

0000285c <__vector_21>:
    285c:	1f 92       	push	r1
    285e:	0f 92       	push	r0
    2860:	0f b6       	in	r0, 0x3f	; 63
    2862:	0f 92       	push	r0
    2864:	11 24       	eor	r1, r1
    2866:	0b b6       	in	r0, 0x3b	; 59
    2868:	0f 92       	push	r0
    286a:	2f 93       	push	r18
    286c:	3f 93       	push	r19
    286e:	4f 93       	push	r20
    2870:	5f 93       	push	r21
    2872:	6f 93       	push	r22
    2874:	7f 93       	push	r23
    2876:	8f 93       	push	r24
    2878:	9f 93       	push	r25
    287a:	af 93       	push	r26
    287c:	bf 93       	push	r27
    287e:	ef 93       	push	r30
    2880:	ff 93       	push	r31
    2882:	e0 91 3a 0e 	lds	r30, 0x0E3A
    2886:	f0 91 3b 0e 	lds	r31, 0x0E3B
    288a:	19 95       	eicall
    288c:	ff 91       	pop	r31
    288e:	ef 91       	pop	r30
    2890:	bf 91       	pop	r27
    2892:	af 91       	pop	r26
    2894:	9f 91       	pop	r25
    2896:	8f 91       	pop	r24
    2898:	7f 91       	pop	r23
    289a:	6f 91       	pop	r22
    289c:	5f 91       	pop	r21
    289e:	4f 91       	pop	r20
    28a0:	3f 91       	pop	r19
    28a2:	2f 91       	pop	r18
    28a4:	0f 90       	pop	r0
    28a6:	0b be       	out	0x3b, r0	; 59
    28a8:	0f 90       	pop	r0
    28aa:	0f be       	out	0x3f, r0	; 63
    28ac:	0f 90       	pop	r0
    28ae:	1f 90       	pop	r1
    28b0:	18 95       	reti

000028b2 <pxPortInitialiseStack>:
    28b2:	31 e1       	ldi	r19, 0x11	; 17
    28b4:	fc 01       	movw	r30, r24
    28b6:	30 83       	st	Z, r19
    28b8:	31 97       	sbiw	r30, 0x01	; 1
    28ba:	22 e2       	ldi	r18, 0x22	; 34
    28bc:	20 83       	st	Z, r18
    28be:	31 97       	sbiw	r30, 0x01	; 1
    28c0:	a3 e3       	ldi	r26, 0x33	; 51
    28c2:	a0 83       	st	Z, r26
    28c4:	31 97       	sbiw	r30, 0x01	; 1
    28c6:	60 83       	st	Z, r22
    28c8:	31 97       	sbiw	r30, 0x01	; 1
    28ca:	70 83       	st	Z, r23
    28cc:	31 97       	sbiw	r30, 0x01	; 1
    28ce:	10 82       	st	Z, r1
    28d0:	31 97       	sbiw	r30, 0x01	; 1
    28d2:	10 82       	st	Z, r1
    28d4:	31 97       	sbiw	r30, 0x01	; 1
    28d6:	60 e8       	ldi	r22, 0x80	; 128
    28d8:	60 83       	st	Z, r22
    28da:	31 97       	sbiw	r30, 0x01	; 1
    28dc:	10 82       	st	Z, r1
    28de:	31 97       	sbiw	r30, 0x01	; 1
    28e0:	10 82       	st	Z, r1
    28e2:	31 97       	sbiw	r30, 0x01	; 1
    28e4:	10 82       	st	Z, r1
    28e6:	31 97       	sbiw	r30, 0x01	; 1
    28e8:	62 e0       	ldi	r22, 0x02	; 2
    28ea:	60 83       	st	Z, r22
    28ec:	31 97       	sbiw	r30, 0x01	; 1
    28ee:	63 e0       	ldi	r22, 0x03	; 3
    28f0:	60 83       	st	Z, r22
    28f2:	31 97       	sbiw	r30, 0x01	; 1
    28f4:	64 e0       	ldi	r22, 0x04	; 4
    28f6:	60 83       	st	Z, r22
    28f8:	31 97       	sbiw	r30, 0x01	; 1
    28fa:	65 e0       	ldi	r22, 0x05	; 5
    28fc:	60 83       	st	Z, r22
    28fe:	31 97       	sbiw	r30, 0x01	; 1
    2900:	66 e0       	ldi	r22, 0x06	; 6
    2902:	60 83       	st	Z, r22
    2904:	31 97       	sbiw	r30, 0x01	; 1
    2906:	67 e0       	ldi	r22, 0x07	; 7
    2908:	60 83       	st	Z, r22
    290a:	31 97       	sbiw	r30, 0x01	; 1
    290c:	68 e0       	ldi	r22, 0x08	; 8
    290e:	60 83       	st	Z, r22
    2910:	31 97       	sbiw	r30, 0x01	; 1
    2912:	69 e0       	ldi	r22, 0x09	; 9
    2914:	60 83       	st	Z, r22
    2916:	31 97       	sbiw	r30, 0x01	; 1
    2918:	60 e1       	ldi	r22, 0x10	; 16
    291a:	60 83       	st	Z, r22
    291c:	31 97       	sbiw	r30, 0x01	; 1
    291e:	30 83       	st	Z, r19
    2920:	31 97       	sbiw	r30, 0x01	; 1
    2922:	32 e1       	ldi	r19, 0x12	; 18
    2924:	30 83       	st	Z, r19
    2926:	31 97       	sbiw	r30, 0x01	; 1
    2928:	33 e1       	ldi	r19, 0x13	; 19
    292a:	30 83       	st	Z, r19
    292c:	31 97       	sbiw	r30, 0x01	; 1
    292e:	34 e1       	ldi	r19, 0x14	; 20
    2930:	30 83       	st	Z, r19
    2932:	31 97       	sbiw	r30, 0x01	; 1
    2934:	35 e1       	ldi	r19, 0x15	; 21
    2936:	30 83       	st	Z, r19
    2938:	31 97       	sbiw	r30, 0x01	; 1
    293a:	36 e1       	ldi	r19, 0x16	; 22
    293c:	30 83       	st	Z, r19
    293e:	31 97       	sbiw	r30, 0x01	; 1
    2940:	37 e1       	ldi	r19, 0x17	; 23
    2942:	30 83       	st	Z, r19
    2944:	31 97       	sbiw	r30, 0x01	; 1
    2946:	38 e1       	ldi	r19, 0x18	; 24
    2948:	30 83       	st	Z, r19
    294a:	31 97       	sbiw	r30, 0x01	; 1
    294c:	39 e1       	ldi	r19, 0x19	; 25
    294e:	30 83       	st	Z, r19
    2950:	31 97       	sbiw	r30, 0x01	; 1
    2952:	30 e2       	ldi	r19, 0x20	; 32
    2954:	30 83       	st	Z, r19
    2956:	31 97       	sbiw	r30, 0x01	; 1
    2958:	31 e2       	ldi	r19, 0x21	; 33
    295a:	30 83       	st	Z, r19
    295c:	31 97       	sbiw	r30, 0x01	; 1
    295e:	20 83       	st	Z, r18
    2960:	31 97       	sbiw	r30, 0x01	; 1
    2962:	23 e2       	ldi	r18, 0x23	; 35
    2964:	20 83       	st	Z, r18
    2966:	31 97       	sbiw	r30, 0x01	; 1
    2968:	40 83       	st	Z, r20
    296a:	31 97       	sbiw	r30, 0x01	; 1
    296c:	50 83       	st	Z, r21
    296e:	31 97       	sbiw	r30, 0x01	; 1
    2970:	26 e2       	ldi	r18, 0x26	; 38
    2972:	20 83       	st	Z, r18
    2974:	31 97       	sbiw	r30, 0x01	; 1
    2976:	27 e2       	ldi	r18, 0x27	; 39
    2978:	20 83       	st	Z, r18
    297a:	31 97       	sbiw	r30, 0x01	; 1
    297c:	28 e2       	ldi	r18, 0x28	; 40
    297e:	20 83       	st	Z, r18
    2980:	31 97       	sbiw	r30, 0x01	; 1
    2982:	29 e2       	ldi	r18, 0x29	; 41
    2984:	20 83       	st	Z, r18
    2986:	31 97       	sbiw	r30, 0x01	; 1
    2988:	20 e3       	ldi	r18, 0x30	; 48
    298a:	20 83       	st	Z, r18
    298c:	31 97       	sbiw	r30, 0x01	; 1
    298e:	21 e3       	ldi	r18, 0x31	; 49
    2990:	20 83       	st	Z, r18
    2992:	89 97       	sbiw	r24, 0x29	; 41
    2994:	08 95       	ret

00002996 <xPortStartScheduler>:
    2996:	82 e0       	ldi	r24, 0x02	; 2
    2998:	80 93 b0 00 	sts	0x00B0, r24
    299c:	10 92 b2 00 	sts	0x00B2, r1
    29a0:	96 ee       	ldi	r25, 0xE6	; 230
    29a2:	90 93 b3 00 	sts	0x00B3, r25
    29a6:	80 93 70 00 	sts	0x0070, r24
    29aa:	83 e0       	ldi	r24, 0x03	; 3
    29ac:	80 93 b1 00 	sts	0x00B1, r24
    29b0:	a0 91 93 0e 	lds	r26, 0x0E93
    29b4:	b0 91 94 0e 	lds	r27, 0x0E94
    29b8:	cd 91       	ld	r28, X+
    29ba:	cd bf       	out	0x3d, r28	; 61
    29bc:	dd 91       	ld	r29, X+
    29be:	de bf       	out	0x3e, r29	; 62
    29c0:	ff 91       	pop	r31
    29c2:	ef 91       	pop	r30
    29c4:	df 91       	pop	r29
    29c6:	cf 91       	pop	r28
    29c8:	bf 91       	pop	r27
    29ca:	af 91       	pop	r26
    29cc:	9f 91       	pop	r25
    29ce:	8f 91       	pop	r24
    29d0:	7f 91       	pop	r23
    29d2:	6f 91       	pop	r22
    29d4:	5f 91       	pop	r21
    29d6:	4f 91       	pop	r20
    29d8:	3f 91       	pop	r19
    29da:	2f 91       	pop	r18
    29dc:	1f 91       	pop	r17
    29de:	0f 91       	pop	r16
    29e0:	ff 90       	pop	r15
    29e2:	ef 90       	pop	r14
    29e4:	df 90       	pop	r13
    29e6:	cf 90       	pop	r12
    29e8:	bf 90       	pop	r11
    29ea:	af 90       	pop	r10
    29ec:	9f 90       	pop	r9
    29ee:	8f 90       	pop	r8
    29f0:	7f 90       	pop	r7
    29f2:	6f 90       	pop	r6
    29f4:	5f 90       	pop	r5
    29f6:	4f 90       	pop	r4
    29f8:	3f 90       	pop	r3
    29fa:	2f 90       	pop	r2
    29fc:	1f 90       	pop	r1
    29fe:	0f 90       	pop	r0
    2a00:	0c be       	out	0x3c, r0	; 60
    2a02:	0f 90       	pop	r0
    2a04:	0b be       	out	0x3b, r0	; 59
    2a06:	0f 90       	pop	r0
    2a08:	0f be       	out	0x3f, r0	; 63
    2a0a:	0f 90       	pop	r0
    2a0c:	08 95       	ret
    2a0e:	81 e0       	ldi	r24, 0x01	; 1
    2a10:	08 95       	ret

00002a12 <vPortYield>:
    2a12:	0f 92       	push	r0
    2a14:	0f b6       	in	r0, 0x3f	; 63
    2a16:	f8 94       	cli
    2a18:	0f 92       	push	r0
    2a1a:	0b b6       	in	r0, 0x3b	; 59
    2a1c:	0f 92       	push	r0
    2a1e:	0c b6       	in	r0, 0x3c	; 60
    2a20:	0f 92       	push	r0
    2a22:	1f 92       	push	r1
    2a24:	11 24       	eor	r1, r1
    2a26:	2f 92       	push	r2
    2a28:	3f 92       	push	r3
    2a2a:	4f 92       	push	r4
    2a2c:	5f 92       	push	r5
    2a2e:	6f 92       	push	r6
    2a30:	7f 92       	push	r7
    2a32:	8f 92       	push	r8
    2a34:	9f 92       	push	r9
    2a36:	af 92       	push	r10
    2a38:	bf 92       	push	r11
    2a3a:	cf 92       	push	r12
    2a3c:	df 92       	push	r13
    2a3e:	ef 92       	push	r14
    2a40:	ff 92       	push	r15
    2a42:	0f 93       	push	r16
    2a44:	1f 93       	push	r17
    2a46:	2f 93       	push	r18
    2a48:	3f 93       	push	r19
    2a4a:	4f 93       	push	r20
    2a4c:	5f 93       	push	r21
    2a4e:	6f 93       	push	r22
    2a50:	7f 93       	push	r23
    2a52:	8f 93       	push	r24
    2a54:	9f 93       	push	r25
    2a56:	af 93       	push	r26
    2a58:	bf 93       	push	r27
    2a5a:	cf 93       	push	r28
    2a5c:	df 93       	push	r29
    2a5e:	ef 93       	push	r30
    2a60:	ff 93       	push	r31
    2a62:	a0 91 93 0e 	lds	r26, 0x0E93
    2a66:	b0 91 94 0e 	lds	r27, 0x0E94
    2a6a:	0d b6       	in	r0, 0x3d	; 61
    2a6c:	0d 92       	st	X+, r0
    2a6e:	0e b6       	in	r0, 0x3e	; 62
    2a70:	0d 92       	st	X+, r0
    2a72:	7b d3       	rcall	.+1782   	; 0x316a <vTaskSwitchContext>
    2a74:	a0 91 93 0e 	lds	r26, 0x0E93
    2a78:	b0 91 94 0e 	lds	r27, 0x0E94
    2a7c:	cd 91       	ld	r28, X+
    2a7e:	cd bf       	out	0x3d, r28	; 61
    2a80:	dd 91       	ld	r29, X+
    2a82:	de bf       	out	0x3e, r29	; 62
    2a84:	ff 91       	pop	r31
    2a86:	ef 91       	pop	r30
    2a88:	df 91       	pop	r29
    2a8a:	cf 91       	pop	r28
    2a8c:	bf 91       	pop	r27
    2a8e:	af 91       	pop	r26
    2a90:	9f 91       	pop	r25
    2a92:	8f 91       	pop	r24
    2a94:	7f 91       	pop	r23
    2a96:	6f 91       	pop	r22
    2a98:	5f 91       	pop	r21
    2a9a:	4f 91       	pop	r20
    2a9c:	3f 91       	pop	r19
    2a9e:	2f 91       	pop	r18
    2aa0:	1f 91       	pop	r17
    2aa2:	0f 91       	pop	r16
    2aa4:	ff 90       	pop	r15
    2aa6:	ef 90       	pop	r14
    2aa8:	df 90       	pop	r13
    2aaa:	cf 90       	pop	r12
    2aac:	bf 90       	pop	r11
    2aae:	af 90       	pop	r10
    2ab0:	9f 90       	pop	r9
    2ab2:	8f 90       	pop	r8
    2ab4:	7f 90       	pop	r7
    2ab6:	6f 90       	pop	r6
    2ab8:	5f 90       	pop	r5
    2aba:	4f 90       	pop	r4
    2abc:	3f 90       	pop	r3
    2abe:	2f 90       	pop	r2
    2ac0:	1f 90       	pop	r1
    2ac2:	0f 90       	pop	r0
    2ac4:	0c be       	out	0x3c, r0	; 60
    2ac6:	0f 90       	pop	r0
    2ac8:	0b be       	out	0x3b, r0	; 59
    2aca:	0f 90       	pop	r0
    2acc:	0f be       	out	0x3f, r0	; 63
    2ace:	0f 90       	pop	r0
    2ad0:	08 95       	ret

00002ad2 <vPortYieldFromTick>:
    2ad2:	0f 92       	push	r0
    2ad4:	0f b6       	in	r0, 0x3f	; 63
    2ad6:	f8 94       	cli
    2ad8:	0f 92       	push	r0
    2ada:	0b b6       	in	r0, 0x3b	; 59
    2adc:	0f 92       	push	r0
    2ade:	0c b6       	in	r0, 0x3c	; 60
    2ae0:	0f 92       	push	r0
    2ae2:	1f 92       	push	r1
    2ae4:	11 24       	eor	r1, r1
    2ae6:	2f 92       	push	r2
    2ae8:	3f 92       	push	r3
    2aea:	4f 92       	push	r4
    2aec:	5f 92       	push	r5
    2aee:	6f 92       	push	r6
    2af0:	7f 92       	push	r7
    2af2:	8f 92       	push	r8
    2af4:	9f 92       	push	r9
    2af6:	af 92       	push	r10
    2af8:	bf 92       	push	r11
    2afa:	cf 92       	push	r12
    2afc:	df 92       	push	r13
    2afe:	ef 92       	push	r14
    2b00:	ff 92       	push	r15
    2b02:	0f 93       	push	r16
    2b04:	1f 93       	push	r17
    2b06:	2f 93       	push	r18
    2b08:	3f 93       	push	r19
    2b0a:	4f 93       	push	r20
    2b0c:	5f 93       	push	r21
    2b0e:	6f 93       	push	r22
    2b10:	7f 93       	push	r23
    2b12:	8f 93       	push	r24
    2b14:	9f 93       	push	r25
    2b16:	af 93       	push	r26
    2b18:	bf 93       	push	r27
    2b1a:	cf 93       	push	r28
    2b1c:	df 93       	push	r29
    2b1e:	ef 93       	push	r30
    2b20:	ff 93       	push	r31
    2b22:	a0 91 93 0e 	lds	r26, 0x0E93
    2b26:	b0 91 94 0e 	lds	r27, 0x0E94
    2b2a:	0d b6       	in	r0, 0x3d	; 61
    2b2c:	0d 92       	st	X+, r0
    2b2e:	0e b6       	in	r0, 0x3e	; 62
    2b30:	0d 92       	st	X+, r0
    2b32:	ac d1       	rcall	.+856    	; 0x2e8c <xTaskIncrementTick>
    2b34:	81 11       	cpse	r24, r1
    2b36:	19 d3       	rcall	.+1586   	; 0x316a <vTaskSwitchContext>
    2b38:	a0 91 93 0e 	lds	r26, 0x0E93
    2b3c:	b0 91 94 0e 	lds	r27, 0x0E94
    2b40:	cd 91       	ld	r28, X+
    2b42:	cd bf       	out	0x3d, r28	; 61
    2b44:	dd 91       	ld	r29, X+
    2b46:	de bf       	out	0x3e, r29	; 62
    2b48:	ff 91       	pop	r31
    2b4a:	ef 91       	pop	r30
    2b4c:	df 91       	pop	r29
    2b4e:	cf 91       	pop	r28
    2b50:	bf 91       	pop	r27
    2b52:	af 91       	pop	r26
    2b54:	9f 91       	pop	r25
    2b56:	8f 91       	pop	r24
    2b58:	7f 91       	pop	r23
    2b5a:	6f 91       	pop	r22
    2b5c:	5f 91       	pop	r21
    2b5e:	4f 91       	pop	r20
    2b60:	3f 91       	pop	r19
    2b62:	2f 91       	pop	r18
    2b64:	1f 91       	pop	r17
    2b66:	0f 91       	pop	r16
    2b68:	ff 90       	pop	r15
    2b6a:	ef 90       	pop	r14
    2b6c:	df 90       	pop	r13
    2b6e:	cf 90       	pop	r12
    2b70:	bf 90       	pop	r11
    2b72:	af 90       	pop	r10
    2b74:	9f 90       	pop	r9
    2b76:	8f 90       	pop	r8
    2b78:	7f 90       	pop	r7
    2b7a:	6f 90       	pop	r6
    2b7c:	5f 90       	pop	r5
    2b7e:	4f 90       	pop	r4
    2b80:	3f 90       	pop	r3
    2b82:	2f 90       	pop	r2
    2b84:	1f 90       	pop	r1
    2b86:	0f 90       	pop	r0
    2b88:	0c be       	out	0x3c, r0	; 60
    2b8a:	0f 90       	pop	r0
    2b8c:	0b be       	out	0x3b, r0	; 59
    2b8e:	0f 90       	pop	r0
    2b90:	0f be       	out	0x3f, r0	; 63
    2b92:	0f 90       	pop	r0
    2b94:	08 95       	ret

00002b96 <__vector_13>:
    2b96:	9d df       	rcall	.-198    	; 0x2ad2 <vPortYieldFromTick>
    2b98:	18 95       	reti

00002b9a <prvResetNextTaskUnblockTime>:
    2b9a:	e0 91 5b 0e 	lds	r30, 0x0E5B
    2b9e:	f0 91 5c 0e 	lds	r31, 0x0E5C
    2ba2:	80 81       	ld	r24, Z
    2ba4:	81 11       	cpse	r24, r1
    2ba6:	03 c0       	rjmp	.+6      	; 0x2bae <prvResetNextTaskUnblockTime+0x14>
    2ba8:	8f ef       	ldi	r24, 0xFF	; 255
    2baa:	9f ef       	ldi	r25, 0xFF	; 255
    2bac:	0c c0       	rjmp	.+24     	; 0x2bc6 <prvResetNextTaskUnblockTime+0x2c>
    2bae:	e0 91 5b 0e 	lds	r30, 0x0E5B
    2bb2:	f0 91 5c 0e 	lds	r31, 0x0E5C
    2bb6:	05 80       	ldd	r0, Z+5	; 0x05
    2bb8:	f6 81       	ldd	r31, Z+6	; 0x06
    2bba:	e0 2d       	mov	r30, r0
    2bbc:	06 80       	ldd	r0, Z+6	; 0x06
    2bbe:	f7 81       	ldd	r31, Z+7	; 0x07
    2bc0:	e0 2d       	mov	r30, r0
    2bc2:	82 81       	ldd	r24, Z+2	; 0x02
    2bc4:	93 81       	ldd	r25, Z+3	; 0x03
    2bc6:	90 93 5f 02 	sts	0x025F, r25
    2bca:	80 93 5e 02 	sts	0x025E, r24
    2bce:	08 95       	ret

00002bd0 <prvAddCurrentTaskToDelayedList>:
    2bd0:	cf 93       	push	r28
    2bd2:	df 93       	push	r29
    2bd4:	ec 01       	movw	r28, r24
    2bd6:	e0 91 93 0e 	lds	r30, 0x0E93
    2bda:	f0 91 94 0e 	lds	r31, 0x0E94
    2bde:	93 83       	std	Z+3, r25	; 0x03
    2be0:	82 83       	std	Z+2, r24	; 0x02
    2be2:	80 91 43 0e 	lds	r24, 0x0E43
    2be6:	90 91 44 0e 	lds	r25, 0x0E44
    2bea:	60 91 93 0e 	lds	r22, 0x0E93
    2bee:	70 91 94 0e 	lds	r23, 0x0E94
    2bf2:	c8 17       	cp	r28, r24
    2bf4:	d9 07       	cpc	r29, r25
    2bf6:	50 f4       	brcc	.+20     	; 0x2c0c <prvAddCurrentTaskToDelayedList+0x3c>
    2bf8:	80 91 59 0e 	lds	r24, 0x0E59
    2bfc:	90 91 5a 0e 	lds	r25, 0x0E5A
    2c00:	6e 5f       	subi	r22, 0xFE	; 254
    2c02:	7f 4f       	sbci	r23, 0xFF	; 255
    2c04:	df 91       	pop	r29
    2c06:	cf 91       	pop	r28
    2c08:	0c 94 8e 0d 	jmp	0x1b1c	; 0x1b1c <vListInsert>
    2c0c:	80 91 5b 0e 	lds	r24, 0x0E5B
    2c10:	90 91 5c 0e 	lds	r25, 0x0E5C
    2c14:	6e 5f       	subi	r22, 0xFE	; 254
    2c16:	7f 4f       	sbci	r23, 0xFF	; 255
    2c18:	0e 94 8e 0d 	call	0x1b1c	; 0x1b1c <vListInsert>
    2c1c:	80 91 5e 02 	lds	r24, 0x025E
    2c20:	90 91 5f 02 	lds	r25, 0x025F
    2c24:	c8 17       	cp	r28, r24
    2c26:	d9 07       	cpc	r29, r25
    2c28:	20 f4       	brcc	.+8      	; 0x2c32 <prvAddCurrentTaskToDelayedList+0x62>
    2c2a:	d0 93 5f 02 	sts	0x025F, r29
    2c2e:	c0 93 5e 02 	sts	0x025E, r28
    2c32:	df 91       	pop	r29
    2c34:	cf 91       	pop	r28
    2c36:	08 95       	ret

00002c38 <xTaskGenericCreate>:
    2c38:	5f 92       	push	r5
    2c3a:	6f 92       	push	r6
    2c3c:	7f 92       	push	r7
    2c3e:	8f 92       	push	r8
    2c40:	9f 92       	push	r9
    2c42:	af 92       	push	r10
    2c44:	bf 92       	push	r11
    2c46:	cf 92       	push	r12
    2c48:	df 92       	push	r13
    2c4a:	ef 92       	push	r14
    2c4c:	ff 92       	push	r15
    2c4e:	0f 93       	push	r16
    2c50:	1f 93       	push	r17
    2c52:	cf 93       	push	r28
    2c54:	df 93       	push	r29
    2c56:	4c 01       	movw	r8, r24
    2c58:	16 2f       	mov	r17, r22
    2c5a:	57 2e       	mov	r5, r23
    2c5c:	5a 01       	movw	r10, r20
    2c5e:	39 01       	movw	r6, r18
    2c60:	81 e2       	ldi	r24, 0x21	; 33
    2c62:	90 e0       	ldi	r25, 0x00	; 0
    2c64:	0e 94 d1 0b 	call	0x17a2	; 0x17a2 <pvPortMalloc>
    2c68:	ec 01       	movw	r28, r24
    2c6a:	00 97       	sbiw	r24, 0x00	; 0
    2c6c:	09 f4       	brne	.+2      	; 0x2c70 <xTaskGenericCreate+0x38>
    2c6e:	c7 c0       	rjmp	.+398    	; 0x2dfe <xTaskGenericCreate+0x1c6>
    2c70:	c1 14       	cp	r12, r1
    2c72:	d1 04       	cpc	r13, r1
    2c74:	21 f4       	brne	.+8      	; 0x2c7e <xTaskGenericCreate+0x46>
    2c76:	c5 01       	movw	r24, r10
    2c78:	0e 94 d1 0b 	call	0x17a2	; 0x17a2 <pvPortMalloc>
    2c7c:	01 c0       	rjmp	.+2      	; 0x2c80 <xTaskGenericCreate+0x48>
    2c7e:	c6 01       	movw	r24, r12
    2c80:	98 8f       	std	Y+24, r25	; 0x18
    2c82:	8f 8b       	std	Y+23, r24	; 0x17
    2c84:	00 97       	sbiw	r24, 0x00	; 0
    2c86:	21 f4       	brne	.+8      	; 0x2c90 <xTaskGenericCreate+0x58>
    2c88:	ce 01       	movw	r24, r28
    2c8a:	0e 94 03 0c 	call	0x1806	; 0x1806 <vPortFree>
    2c8e:	b7 c0       	rjmp	.+366    	; 0x2dfe <xTaskGenericCreate+0x1c6>
    2c90:	21 e0       	ldi	r18, 0x01	; 1
    2c92:	a2 1a       	sub	r10, r18
    2c94:	b1 08       	sbc	r11, r1
    2c96:	a8 0e       	add	r10, r24
    2c98:	b9 1e       	adc	r11, r25
    2c9a:	e1 2f       	mov	r30, r17
    2c9c:	f5 2d       	mov	r31, r5
    2c9e:	80 e0       	ldi	r24, 0x00	; 0
    2ca0:	90 e0       	ldi	r25, 0x00	; 0
    2ca2:	bf 01       	movw	r22, r30
    2ca4:	41 91       	ld	r20, Z+
    2ca6:	9e 01       	movw	r18, r28
    2ca8:	28 0f       	add	r18, r24
    2caa:	39 1f       	adc	r19, r25
    2cac:	d9 01       	movw	r26, r18
    2cae:	59 96       	adiw	r26, 0x19	; 25
    2cb0:	4c 93       	st	X, r20
    2cb2:	db 01       	movw	r26, r22
    2cb4:	2c 91       	ld	r18, X
    2cb6:	22 23       	and	r18, r18
    2cb8:	21 f0       	breq	.+8      	; 0x2cc2 <xTaskGenericCreate+0x8a>
    2cba:	01 96       	adiw	r24, 0x01	; 1
    2cbc:	88 30       	cpi	r24, 0x08	; 8
    2cbe:	91 05       	cpc	r25, r1
    2cc0:	81 f7       	brne	.-32     	; 0x2ca2 <xTaskGenericCreate+0x6a>
    2cc2:	18 a2       	std	Y+32, r1	; 0x20
    2cc4:	10 2f       	mov	r17, r16
    2cc6:	04 30       	cpi	r16, 0x04	; 4
    2cc8:	08 f0       	brcs	.+2      	; 0x2ccc <xTaskGenericCreate+0x94>
    2cca:	13 e0       	ldi	r17, 0x03	; 3
    2ccc:	1e 8b       	std	Y+22, r17	; 0x16
    2cce:	6e 01       	movw	r12, r28
    2cd0:	b2 e0       	ldi	r27, 0x02	; 2
    2cd2:	cb 0e       	add	r12, r27
    2cd4:	d1 1c       	adc	r13, r1
    2cd6:	c6 01       	movw	r24, r12
    2cd8:	0e 94 69 0d 	call	0x1ad2	; 0x1ad2 <vListInitialiseItem>
    2cdc:	ce 01       	movw	r24, r28
    2cde:	0c 96       	adiw	r24, 0x0c	; 12
    2ce0:	0e 94 69 0d 	call	0x1ad2	; 0x1ad2 <vListInitialiseItem>
    2ce4:	d9 87       	std	Y+9, r29	; 0x09
    2ce6:	c8 87       	std	Y+8, r28	; 0x08
    2ce8:	84 e0       	ldi	r24, 0x04	; 4
    2cea:	90 e0       	ldi	r25, 0x00	; 0
    2cec:	81 1b       	sub	r24, r17
    2cee:	91 09       	sbc	r25, r1
    2cf0:	9d 87       	std	Y+13, r25	; 0x0d
    2cf2:	8c 87       	std	Y+12, r24	; 0x0c
    2cf4:	db 8b       	std	Y+19, r29	; 0x13
    2cf6:	ca 8b       	std	Y+18, r28	; 0x12
    2cf8:	a3 01       	movw	r20, r6
    2cfa:	b4 01       	movw	r22, r8
    2cfc:	c5 01       	movw	r24, r10
    2cfe:	d9 dd       	rcall	.-1102   	; 0x28b2 <pxPortInitialiseStack>
    2d00:	99 83       	std	Y+1, r25	; 0x01
    2d02:	88 83       	st	Y, r24
    2d04:	e1 14       	cp	r14, r1
    2d06:	f1 04       	cpc	r15, r1
    2d08:	19 f0       	breq	.+6      	; 0x2d10 <xTaskGenericCreate+0xd8>
    2d0a:	f7 01       	movw	r30, r14
    2d0c:	d1 83       	std	Z+1, r29	; 0x01
    2d0e:	c0 83       	st	Z, r28
    2d10:	0f b6       	in	r0, 0x3f	; 63
    2d12:	f8 94       	cli
    2d14:	0f 92       	push	r0
    2d16:	80 91 45 0e 	lds	r24, 0x0E45
    2d1a:	8f 5f       	subi	r24, 0xFF	; 255
    2d1c:	80 93 45 0e 	sts	0x0E45, r24
    2d20:	80 91 93 0e 	lds	r24, 0x0E93
    2d24:	90 91 94 0e 	lds	r25, 0x0E94
    2d28:	89 2b       	or	r24, r25
    2d2a:	a9 f5       	brne	.+106    	; 0x2d96 <xTaskGenericCreate+0x15e>
    2d2c:	d0 93 94 0e 	sts	0x0E94, r29
    2d30:	c0 93 93 0e 	sts	0x0E93, r28
    2d34:	80 91 45 0e 	lds	r24, 0x0E45
    2d38:	81 30       	cpi	r24, 0x01	; 1
    2d3a:	e1 f5       	brne	.+120    	; 0x2db4 <xTaskGenericCreate+0x17c>
    2d3c:	8f e6       	ldi	r24, 0x6F	; 111
    2d3e:	9e e0       	ldi	r25, 0x0E	; 14
    2d40:	0e 94 5b 0d 	call	0x1ab6	; 0x1ab6 <vListInitialise>
    2d44:	88 e7       	ldi	r24, 0x78	; 120
    2d46:	9e e0       	ldi	r25, 0x0E	; 14
    2d48:	0e 94 5b 0d 	call	0x1ab6	; 0x1ab6 <vListInitialise>
    2d4c:	81 e8       	ldi	r24, 0x81	; 129
    2d4e:	9e e0       	ldi	r25, 0x0E	; 14
    2d50:	0e 94 5b 0d 	call	0x1ab6	; 0x1ab6 <vListInitialise>
    2d54:	8a e8       	ldi	r24, 0x8A	; 138
    2d56:	9e e0       	ldi	r25, 0x0E	; 14
    2d58:	0e 94 5b 0d 	call	0x1ab6	; 0x1ab6 <vListInitialise>
    2d5c:	86 e6       	ldi	r24, 0x66	; 102
    2d5e:	9e e0       	ldi	r25, 0x0E	; 14
    2d60:	0e 94 5b 0d 	call	0x1ab6	; 0x1ab6 <vListInitialise>
    2d64:	8d e5       	ldi	r24, 0x5D	; 93
    2d66:	9e e0       	ldi	r25, 0x0E	; 14
    2d68:	0e 94 5b 0d 	call	0x1ab6	; 0x1ab6 <vListInitialise>
    2d6c:	80 e5       	ldi	r24, 0x50	; 80
    2d6e:	9e e0       	ldi	r25, 0x0E	; 14
    2d70:	0e 94 5b 0d 	call	0x1ab6	; 0x1ab6 <vListInitialise>
    2d74:	87 e4       	ldi	r24, 0x47	; 71
    2d76:	9e e0       	ldi	r25, 0x0E	; 14
    2d78:	0e 94 5b 0d 	call	0x1ab6	; 0x1ab6 <vListInitialise>
    2d7c:	86 e6       	ldi	r24, 0x66	; 102
    2d7e:	9e e0       	ldi	r25, 0x0E	; 14
    2d80:	90 93 5c 0e 	sts	0x0E5C, r25
    2d84:	80 93 5b 0e 	sts	0x0E5B, r24
    2d88:	8d e5       	ldi	r24, 0x5D	; 93
    2d8a:	9e e0       	ldi	r25, 0x0E	; 14
    2d8c:	90 93 5a 0e 	sts	0x0E5A, r25
    2d90:	80 93 59 0e 	sts	0x0E59, r24
    2d94:	0f c0       	rjmp	.+30     	; 0x2db4 <xTaskGenericCreate+0x17c>
    2d96:	80 91 41 0e 	lds	r24, 0x0E41
    2d9a:	81 11       	cpse	r24, r1
    2d9c:	0b c0       	rjmp	.+22     	; 0x2db4 <xTaskGenericCreate+0x17c>
    2d9e:	e0 91 93 0e 	lds	r30, 0x0E93
    2da2:	f0 91 94 0e 	lds	r31, 0x0E94
    2da6:	86 89       	ldd	r24, Z+22	; 0x16
    2da8:	08 17       	cp	r16, r24
    2daa:	20 f0       	brcs	.+8      	; 0x2db4 <xTaskGenericCreate+0x17c>
    2dac:	d0 93 94 0e 	sts	0x0E94, r29
    2db0:	c0 93 93 0e 	sts	0x0E93, r28
    2db4:	80 91 3d 0e 	lds	r24, 0x0E3D
    2db8:	8f 5f       	subi	r24, 0xFF	; 255
    2dba:	80 93 3d 0e 	sts	0x0E3D, r24
    2dbe:	8e 89       	ldd	r24, Y+22	; 0x16
    2dc0:	90 91 42 0e 	lds	r25, 0x0E42
    2dc4:	98 17       	cp	r25, r24
    2dc6:	10 f4       	brcc	.+4      	; 0x2dcc <xTaskGenericCreate+0x194>
    2dc8:	80 93 42 0e 	sts	0x0E42, r24
    2dcc:	f9 e0       	ldi	r31, 0x09	; 9
    2dce:	8f 9f       	mul	r24, r31
    2dd0:	c0 01       	movw	r24, r0
    2dd2:	11 24       	eor	r1, r1
    2dd4:	b6 01       	movw	r22, r12
    2dd6:	81 59       	subi	r24, 0x91	; 145
    2dd8:	91 4f       	sbci	r25, 0xF1	; 241
    2dda:	0e 94 6d 0d 	call	0x1ada	; 0x1ada <vListInsertEnd>
    2dde:	0f 90       	pop	r0
    2de0:	0f be       	out	0x3f, r0	; 63
    2de2:	80 91 41 0e 	lds	r24, 0x0E41
    2de6:	88 23       	and	r24, r24
    2de8:	41 f0       	breq	.+16     	; 0x2dfa <xTaskGenericCreate+0x1c2>
    2dea:	e0 91 93 0e 	lds	r30, 0x0E93
    2dee:	f0 91 94 0e 	lds	r31, 0x0E94
    2df2:	86 89       	ldd	r24, Z+22	; 0x16
    2df4:	80 17       	cp	r24, r16
    2df6:	08 f4       	brcc	.+2      	; 0x2dfa <xTaskGenericCreate+0x1c2>
    2df8:	0c de       	rcall	.-1000   	; 0x2a12 <vPortYield>
    2dfa:	81 e0       	ldi	r24, 0x01	; 1
    2dfc:	01 c0       	rjmp	.+2      	; 0x2e00 <xTaskGenericCreate+0x1c8>
    2dfe:	8f ef       	ldi	r24, 0xFF	; 255
    2e00:	df 91       	pop	r29
    2e02:	cf 91       	pop	r28
    2e04:	1f 91       	pop	r17
    2e06:	0f 91       	pop	r16
    2e08:	ff 90       	pop	r15
    2e0a:	ef 90       	pop	r14
    2e0c:	df 90       	pop	r13
    2e0e:	cf 90       	pop	r12
    2e10:	bf 90       	pop	r11
    2e12:	af 90       	pop	r10
    2e14:	9f 90       	pop	r9
    2e16:	8f 90       	pop	r8
    2e18:	7f 90       	pop	r7
    2e1a:	6f 90       	pop	r6
    2e1c:	5f 90       	pop	r5
    2e1e:	08 95       	ret

00002e20 <vTaskStartScheduler>:
    2e20:	af 92       	push	r10
    2e22:	bf 92       	push	r11
    2e24:	cf 92       	push	r12
    2e26:	df 92       	push	r13
    2e28:	ef 92       	push	r14
    2e2a:	ff 92       	push	r15
    2e2c:	0f 93       	push	r16
    2e2e:	a1 2c       	mov	r10, r1
    2e30:	b1 2c       	mov	r11, r1
    2e32:	c1 2c       	mov	r12, r1
    2e34:	d1 2c       	mov	r13, r1
    2e36:	e1 2c       	mov	r14, r1
    2e38:	f1 2c       	mov	r15, r1
    2e3a:	00 e0       	ldi	r16, 0x00	; 0
    2e3c:	20 e0       	ldi	r18, 0x00	; 0
    2e3e:	30 e0       	ldi	r19, 0x00	; 0
    2e40:	45 e5       	ldi	r20, 0x55	; 85
    2e42:	50 e0       	ldi	r21, 0x00	; 0
    2e44:	66 eb       	ldi	r22, 0xB6	; 182
    2e46:	72 e0       	ldi	r23, 0x02	; 2
    2e48:	84 e8       	ldi	r24, 0x84	; 132
    2e4a:	98 e1       	ldi	r25, 0x18	; 24
    2e4c:	f5 de       	rcall	.-534    	; 0x2c38 <xTaskGenericCreate>
    2e4e:	81 30       	cpi	r24, 0x01	; 1
    2e50:	79 f4       	brne	.+30     	; 0x2e70 <vTaskStartScheduler+0x50>
    2e52:	f8 94       	cli
    2e54:	80 93 41 0e 	sts	0x0E41, r24
    2e58:	10 92 44 0e 	sts	0x0E44, r1
    2e5c:	10 92 43 0e 	sts	0x0E43, r1
    2e60:	0f 91       	pop	r16
    2e62:	ff 90       	pop	r15
    2e64:	ef 90       	pop	r14
    2e66:	df 90       	pop	r13
    2e68:	cf 90       	pop	r12
    2e6a:	bf 90       	pop	r11
    2e6c:	af 90       	pop	r10
    2e6e:	93 cd       	rjmp	.-1242   	; 0x2996 <xPortStartScheduler>
    2e70:	0f 91       	pop	r16
    2e72:	ff 90       	pop	r15
    2e74:	ef 90       	pop	r14
    2e76:	df 90       	pop	r13
    2e78:	cf 90       	pop	r12
    2e7a:	bf 90       	pop	r11
    2e7c:	af 90       	pop	r10
    2e7e:	08 95       	ret

00002e80 <vTaskSuspendAll>:
    2e80:	80 91 3c 0e 	lds	r24, 0x0E3C
    2e84:	8f 5f       	subi	r24, 0xFF	; 255
    2e86:	80 93 3c 0e 	sts	0x0E3C, r24
    2e8a:	08 95       	ret

00002e8c <xTaskIncrementTick>:
    2e8c:	cf 92       	push	r12
    2e8e:	df 92       	push	r13
    2e90:	ef 92       	push	r14
    2e92:	ff 92       	push	r15
    2e94:	0f 93       	push	r16
    2e96:	1f 93       	push	r17
    2e98:	cf 93       	push	r28
    2e9a:	df 93       	push	r29
    2e9c:	80 91 3c 0e 	lds	r24, 0x0E3C
    2ea0:	81 11       	cpse	r24, r1
    2ea2:	8d c0       	rjmp	.+282    	; 0x2fbe <xTaskIncrementTick+0x132>
    2ea4:	80 91 43 0e 	lds	r24, 0x0E43
    2ea8:	90 91 44 0e 	lds	r25, 0x0E44
    2eac:	01 96       	adiw	r24, 0x01	; 1
    2eae:	90 93 44 0e 	sts	0x0E44, r25
    2eb2:	80 93 43 0e 	sts	0x0E43, r24
    2eb6:	00 91 43 0e 	lds	r16, 0x0E43
    2eba:	10 91 44 0e 	lds	r17, 0x0E44
    2ebe:	01 15       	cp	r16, r1
    2ec0:	11 05       	cpc	r17, r1
    2ec2:	b1 f4       	brne	.+44     	; 0x2ef0 <xTaskIncrementTick+0x64>
    2ec4:	80 91 5b 0e 	lds	r24, 0x0E5B
    2ec8:	90 91 5c 0e 	lds	r25, 0x0E5C
    2ecc:	20 91 59 0e 	lds	r18, 0x0E59
    2ed0:	30 91 5a 0e 	lds	r19, 0x0E5A
    2ed4:	30 93 5c 0e 	sts	0x0E5C, r19
    2ed8:	20 93 5b 0e 	sts	0x0E5B, r18
    2edc:	90 93 5a 0e 	sts	0x0E5A, r25
    2ee0:	80 93 59 0e 	sts	0x0E59, r24
    2ee4:	80 91 3e 0e 	lds	r24, 0x0E3E
    2ee8:	8f 5f       	subi	r24, 0xFF	; 255
    2eea:	80 93 3e 0e 	sts	0x0E3E, r24
    2eee:	55 de       	rcall	.-854    	; 0x2b9a <prvResetNextTaskUnblockTime>
    2ef0:	80 91 5e 02 	lds	r24, 0x025E
    2ef4:	90 91 5f 02 	lds	r25, 0x025F
    2ef8:	d1 2c       	mov	r13, r1
    2efa:	08 17       	cp	r16, r24
    2efc:	19 07       	cpc	r17, r25
    2efe:	08 f4       	brcc	.+2      	; 0x2f02 <xTaskIncrementTick+0x76>
    2f00:	4d c0       	rjmp	.+154    	; 0x2f9c <xTaskIncrementTick+0x110>
    2f02:	89 e0       	ldi	r24, 0x09	; 9
    2f04:	c8 2e       	mov	r12, r24
    2f06:	e0 91 5b 0e 	lds	r30, 0x0E5B
    2f0a:	f0 91 5c 0e 	lds	r31, 0x0E5C
    2f0e:	80 81       	ld	r24, Z
    2f10:	81 11       	cpse	r24, r1
    2f12:	07 c0       	rjmp	.+14     	; 0x2f22 <xTaskIncrementTick+0x96>
    2f14:	8f ef       	ldi	r24, 0xFF	; 255
    2f16:	9f ef       	ldi	r25, 0xFF	; 255
    2f18:	90 93 5f 02 	sts	0x025F, r25
    2f1c:	80 93 5e 02 	sts	0x025E, r24
    2f20:	3d c0       	rjmp	.+122    	; 0x2f9c <xTaskIncrementTick+0x110>
    2f22:	e0 91 5b 0e 	lds	r30, 0x0E5B
    2f26:	f0 91 5c 0e 	lds	r31, 0x0E5C
    2f2a:	05 80       	ldd	r0, Z+5	; 0x05
    2f2c:	f6 81       	ldd	r31, Z+6	; 0x06
    2f2e:	e0 2d       	mov	r30, r0
    2f30:	c6 81       	ldd	r28, Z+6	; 0x06
    2f32:	d7 81       	ldd	r29, Z+7	; 0x07
    2f34:	2a 81       	ldd	r18, Y+2	; 0x02
    2f36:	3b 81       	ldd	r19, Y+3	; 0x03
    2f38:	02 17       	cp	r16, r18
    2f3a:	13 07       	cpc	r17, r19
    2f3c:	28 f4       	brcc	.+10     	; 0x2f48 <xTaskIncrementTick+0xbc>
    2f3e:	30 93 5f 02 	sts	0x025F, r19
    2f42:	20 93 5e 02 	sts	0x025E, r18
    2f46:	2a c0       	rjmp	.+84     	; 0x2f9c <xTaskIncrementTick+0x110>
    2f48:	7e 01       	movw	r14, r28
    2f4a:	82 e0       	ldi	r24, 0x02	; 2
    2f4c:	e8 0e       	add	r14, r24
    2f4e:	f1 1c       	adc	r15, r1
    2f50:	c7 01       	movw	r24, r14
    2f52:	0e 94 c6 0d 	call	0x1b8c	; 0x1b8c <uxListRemove>
    2f56:	2c 89       	ldd	r18, Y+20	; 0x14
    2f58:	3d 89       	ldd	r19, Y+21	; 0x15
    2f5a:	23 2b       	or	r18, r19
    2f5c:	21 f0       	breq	.+8      	; 0x2f66 <xTaskIncrementTick+0xda>
    2f5e:	ce 01       	movw	r24, r28
    2f60:	0c 96       	adiw	r24, 0x0c	; 12
    2f62:	0e 94 c6 0d 	call	0x1b8c	; 0x1b8c <uxListRemove>
    2f66:	2e 89       	ldd	r18, Y+22	; 0x16
    2f68:	80 91 42 0e 	lds	r24, 0x0E42
    2f6c:	82 17       	cp	r24, r18
    2f6e:	10 f4       	brcc	.+4      	; 0x2f74 <xTaskIncrementTick+0xe8>
    2f70:	20 93 42 0e 	sts	0x0E42, r18
    2f74:	c2 9e       	mul	r12, r18
    2f76:	c0 01       	movw	r24, r0
    2f78:	11 24       	eor	r1, r1
    2f7a:	b7 01       	movw	r22, r14
    2f7c:	81 59       	subi	r24, 0x91	; 145
    2f7e:	91 4f       	sbci	r25, 0xF1	; 241
    2f80:	0e 94 6d 0d 	call	0x1ada	; 0x1ada <vListInsertEnd>
    2f84:	e0 91 93 0e 	lds	r30, 0x0E93
    2f88:	f0 91 94 0e 	lds	r31, 0x0E94
    2f8c:	9e 89       	ldd	r25, Y+22	; 0x16
    2f8e:	86 89       	ldd	r24, Z+22	; 0x16
    2f90:	98 17       	cp	r25, r24
    2f92:	08 f4       	brcc	.+2      	; 0x2f96 <xTaskIncrementTick+0x10a>
    2f94:	b8 cf       	rjmp	.-144    	; 0x2f06 <xTaskIncrementTick+0x7a>
    2f96:	dd 24       	eor	r13, r13
    2f98:	d3 94       	inc	r13
    2f9a:	b5 cf       	rjmp	.-150    	; 0x2f06 <xTaskIncrementTick+0x7a>
    2f9c:	e0 91 93 0e 	lds	r30, 0x0E93
    2fa0:	f0 91 94 0e 	lds	r31, 0x0E94
    2fa4:	e6 89       	ldd	r30, Z+22	; 0x16
    2fa6:	89 e0       	ldi	r24, 0x09	; 9
    2fa8:	e8 9f       	mul	r30, r24
    2faa:	f0 01       	movw	r30, r0
    2fac:	11 24       	eor	r1, r1
    2fae:	e1 59       	subi	r30, 0x91	; 145
    2fb0:	f1 4f       	sbci	r31, 0xF1	; 241
    2fb2:	80 81       	ld	r24, Z
    2fb4:	82 30       	cpi	r24, 0x02	; 2
    2fb6:	48 f0       	brcs	.+18     	; 0x2fca <xTaskIncrementTick+0x13e>
    2fb8:	dd 24       	eor	r13, r13
    2fba:	d3 94       	inc	r13
    2fbc:	06 c0       	rjmp	.+12     	; 0x2fca <xTaskIncrementTick+0x13e>
    2fbe:	80 91 40 0e 	lds	r24, 0x0E40
    2fc2:	8f 5f       	subi	r24, 0xFF	; 255
    2fc4:	80 93 40 0e 	sts	0x0E40, r24
    2fc8:	d1 2c       	mov	r13, r1
    2fca:	80 91 3f 0e 	lds	r24, 0x0E3F
    2fce:	88 23       	and	r24, r24
    2fd0:	11 f0       	breq	.+4      	; 0x2fd6 <xTaskIncrementTick+0x14a>
    2fd2:	dd 24       	eor	r13, r13
    2fd4:	d3 94       	inc	r13
    2fd6:	8d 2d       	mov	r24, r13
    2fd8:	df 91       	pop	r29
    2fda:	cf 91       	pop	r28
    2fdc:	1f 91       	pop	r17
    2fde:	0f 91       	pop	r16
    2fe0:	ff 90       	pop	r15
    2fe2:	ef 90       	pop	r14
    2fe4:	df 90       	pop	r13
    2fe6:	cf 90       	pop	r12
    2fe8:	08 95       	ret

00002fea <xTaskResumeAll>:
    2fea:	ef 92       	push	r14
    2fec:	ff 92       	push	r15
    2fee:	0f 93       	push	r16
    2ff0:	1f 93       	push	r17
    2ff2:	cf 93       	push	r28
    2ff4:	df 93       	push	r29
    2ff6:	0f b6       	in	r0, 0x3f	; 63
    2ff8:	f8 94       	cli
    2ffa:	0f 92       	push	r0
    2ffc:	80 91 3c 0e 	lds	r24, 0x0E3C
    3000:	81 50       	subi	r24, 0x01	; 1
    3002:	80 93 3c 0e 	sts	0x0E3C, r24
    3006:	80 91 3c 0e 	lds	r24, 0x0E3C
    300a:	88 23       	and	r24, r24
    300c:	11 f0       	breq	.+4      	; 0x3012 <xTaskResumeAll+0x28>
    300e:	80 e0       	ldi	r24, 0x00	; 0
    3010:	51 c0       	rjmp	.+162    	; 0x30b4 <xTaskResumeAll+0xca>
    3012:	80 91 45 0e 	lds	r24, 0x0E45
    3016:	88 23       	and	r24, r24
    3018:	d1 f3       	breq	.-12     	; 0x300e <xTaskResumeAll+0x24>
    301a:	99 e0       	ldi	r25, 0x09	; 9
    301c:	f9 2e       	mov	r15, r25
    301e:	ee 24       	eor	r14, r14
    3020:	e3 94       	inc	r14
    3022:	80 91 50 0e 	lds	r24, 0x0E50
    3026:	88 23       	and	r24, r24
    3028:	51 f1       	breq	.+84     	; 0x307e <xTaskResumeAll+0x94>
    302a:	e0 91 55 0e 	lds	r30, 0x0E55
    302e:	f0 91 56 0e 	lds	r31, 0x0E56
    3032:	c6 81       	ldd	r28, Z+6	; 0x06
    3034:	d7 81       	ldd	r29, Z+7	; 0x07
    3036:	ce 01       	movw	r24, r28
    3038:	0c 96       	adiw	r24, 0x0c	; 12
    303a:	0e 94 c6 0d 	call	0x1b8c	; 0x1b8c <uxListRemove>
    303e:	8e 01       	movw	r16, r28
    3040:	0e 5f       	subi	r16, 0xFE	; 254
    3042:	1f 4f       	sbci	r17, 0xFF	; 255
    3044:	c8 01       	movw	r24, r16
    3046:	0e 94 c6 0d 	call	0x1b8c	; 0x1b8c <uxListRemove>
    304a:	8e 89       	ldd	r24, Y+22	; 0x16
    304c:	90 91 42 0e 	lds	r25, 0x0E42
    3050:	98 17       	cp	r25, r24
    3052:	10 f4       	brcc	.+4      	; 0x3058 <xTaskResumeAll+0x6e>
    3054:	80 93 42 0e 	sts	0x0E42, r24
    3058:	f8 9e       	mul	r15, r24
    305a:	c0 01       	movw	r24, r0
    305c:	11 24       	eor	r1, r1
    305e:	b8 01       	movw	r22, r16
    3060:	81 59       	subi	r24, 0x91	; 145
    3062:	91 4f       	sbci	r25, 0xF1	; 241
    3064:	0e 94 6d 0d 	call	0x1ada	; 0x1ada <vListInsertEnd>
    3068:	e0 91 93 0e 	lds	r30, 0x0E93
    306c:	f0 91 94 0e 	lds	r31, 0x0E94
    3070:	9e 89       	ldd	r25, Y+22	; 0x16
    3072:	86 89       	ldd	r24, Z+22	; 0x16
    3074:	98 17       	cp	r25, r24
    3076:	a8 f2       	brcs	.-86     	; 0x3022 <xTaskResumeAll+0x38>
    3078:	e0 92 3f 0e 	sts	0x0E3F, r14
    307c:	d2 cf       	rjmp	.-92     	; 0x3022 <xTaskResumeAll+0x38>
    307e:	80 91 40 0e 	lds	r24, 0x0E40
    3082:	81 11       	cpse	r24, r1
    3084:	08 c0       	rjmp	.+16     	; 0x3096 <xTaskResumeAll+0xac>
    3086:	80 91 3f 0e 	lds	r24, 0x0E3F
    308a:	81 30       	cpi	r24, 0x01	; 1
    308c:	09 f0       	breq	.+2      	; 0x3090 <xTaskResumeAll+0xa6>
    308e:	bf cf       	rjmp	.-130    	; 0x300e <xTaskResumeAll+0x24>
    3090:	c0 dc       	rcall	.-1664   	; 0x2a12 <vPortYield>
    3092:	81 e0       	ldi	r24, 0x01	; 1
    3094:	0f c0       	rjmp	.+30     	; 0x30b4 <xTaskResumeAll+0xca>
    3096:	c1 e0       	ldi	r28, 0x01	; 1
    3098:	80 91 40 0e 	lds	r24, 0x0E40
    309c:	88 23       	and	r24, r24
    309e:	99 f3       	breq	.-26     	; 0x3086 <xTaskResumeAll+0x9c>
    30a0:	f5 de       	rcall	.-534    	; 0x2e8c <xTaskIncrementTick>
    30a2:	81 11       	cpse	r24, r1
    30a4:	c0 93 3f 0e 	sts	0x0E3F, r28
    30a8:	80 91 40 0e 	lds	r24, 0x0E40
    30ac:	81 50       	subi	r24, 0x01	; 1
    30ae:	80 93 40 0e 	sts	0x0E40, r24
    30b2:	f2 cf       	rjmp	.-28     	; 0x3098 <xTaskResumeAll+0xae>
    30b4:	0f 90       	pop	r0
    30b6:	0f be       	out	0x3f, r0	; 63
    30b8:	df 91       	pop	r29
    30ba:	cf 91       	pop	r28
    30bc:	1f 91       	pop	r17
    30be:	0f 91       	pop	r16
    30c0:	ff 90       	pop	r15
    30c2:	ef 90       	pop	r14
    30c4:	08 95       	ret

000030c6 <vTaskDelay>:
    30c6:	0f 93       	push	r16
    30c8:	1f 93       	push	r17
    30ca:	cf 93       	push	r28
    30cc:	df 93       	push	r29
    30ce:	8c 01       	movw	r16, r24
    30d0:	00 97       	sbiw	r24, 0x00	; 0
    30d2:	11 f4       	brne	.+4      	; 0x30d8 <vTaskDelay+0x12>
    30d4:	9e dc       	rcall	.-1732   	; 0x2a12 <vPortYield>
    30d6:	13 c0       	rjmp	.+38     	; 0x30fe <vTaskDelay+0x38>
    30d8:	d3 de       	rcall	.-602    	; 0x2e80 <vTaskSuspendAll>
    30da:	c0 91 43 0e 	lds	r28, 0x0E43
    30de:	d0 91 44 0e 	lds	r29, 0x0E44
    30e2:	c0 0f       	add	r28, r16
    30e4:	d1 1f       	adc	r29, r17
    30e6:	80 91 93 0e 	lds	r24, 0x0E93
    30ea:	90 91 94 0e 	lds	r25, 0x0E94
    30ee:	02 96       	adiw	r24, 0x02	; 2
    30f0:	0e 94 c6 0d 	call	0x1b8c	; 0x1b8c <uxListRemove>
    30f4:	ce 01       	movw	r24, r28
    30f6:	6c dd       	rcall	.-1320   	; 0x2bd0 <prvAddCurrentTaskToDelayedList>
    30f8:	78 df       	rcall	.-272    	; 0x2fea <xTaskResumeAll>
    30fa:	88 23       	and	r24, r24
    30fc:	59 f3       	breq	.-42     	; 0x30d4 <vTaskDelay+0xe>
    30fe:	df 91       	pop	r29
    3100:	cf 91       	pop	r28
    3102:	1f 91       	pop	r17
    3104:	0f 91       	pop	r16
    3106:	08 95       	ret

00003108 <prvIdleTask>:
    3108:	80 91 46 0e 	lds	r24, 0x0E46
    310c:	88 23       	and	r24, r24
    310e:	39 f1       	breq	.+78     	; 0x315e <prvIdleTask+0x56>
    3110:	b7 de       	rcall	.-658    	; 0x2e80 <vTaskSuspendAll>
    3112:	c0 91 47 0e 	lds	r28, 0x0E47
    3116:	69 df       	rcall	.-302    	; 0x2fea <xTaskResumeAll>
    3118:	cc 23       	and	r28, r28
    311a:	b1 f3       	breq	.-20     	; 0x3108 <prvIdleTask>
    311c:	0f b6       	in	r0, 0x3f	; 63
    311e:	f8 94       	cli
    3120:	0f 92       	push	r0
    3122:	e0 91 4c 0e 	lds	r30, 0x0E4C
    3126:	f0 91 4d 0e 	lds	r31, 0x0E4D
    312a:	c6 81       	ldd	r28, Z+6	; 0x06
    312c:	d7 81       	ldd	r29, Z+7	; 0x07
    312e:	ce 01       	movw	r24, r28
    3130:	02 96       	adiw	r24, 0x02	; 2
    3132:	0e 94 c6 0d 	call	0x1b8c	; 0x1b8c <uxListRemove>
    3136:	80 91 45 0e 	lds	r24, 0x0E45
    313a:	81 50       	subi	r24, 0x01	; 1
    313c:	80 93 45 0e 	sts	0x0E45, r24
    3140:	80 91 46 0e 	lds	r24, 0x0E46
    3144:	81 50       	subi	r24, 0x01	; 1
    3146:	80 93 46 0e 	sts	0x0E46, r24
    314a:	0f 90       	pop	r0
    314c:	0f be       	out	0x3f, r0	; 63
    314e:	8f 89       	ldd	r24, Y+23	; 0x17
    3150:	98 8d       	ldd	r25, Y+24	; 0x18
    3152:	0e 94 03 0c 	call	0x1806	; 0x1806 <vPortFree>
    3156:	ce 01       	movw	r24, r28
    3158:	0e 94 03 0c 	call	0x1806	; 0x1806 <vPortFree>
    315c:	d5 cf       	rjmp	.-86     	; 0x3108 <prvIdleTask>
    315e:	80 91 6f 0e 	lds	r24, 0x0E6F
    3162:	82 30       	cpi	r24, 0x02	; 2
    3164:	88 f2       	brcs	.-94     	; 0x3108 <prvIdleTask>
    3166:	55 dc       	rcall	.-1878   	; 0x2a12 <vPortYield>
    3168:	cf cf       	rjmp	.-98     	; 0x3108 <prvIdleTask>

0000316a <vTaskSwitchContext>:
    316a:	80 91 3c 0e 	lds	r24, 0x0E3C
    316e:	88 23       	and	r24, r24
    3170:	21 f0       	breq	.+8      	; 0x317a <vTaskSwitchContext+0x10>
    3172:	81 e0       	ldi	r24, 0x01	; 1
    3174:	80 93 3f 0e 	sts	0x0E3F, r24
    3178:	08 95       	ret
    317a:	10 92 3f 0e 	sts	0x0E3F, r1
    317e:	99 e0       	ldi	r25, 0x09	; 9
    3180:	e0 91 42 0e 	lds	r30, 0x0E42
    3184:	9e 9f       	mul	r25, r30
    3186:	f0 01       	movw	r30, r0
    3188:	11 24       	eor	r1, r1
    318a:	e1 59       	subi	r30, 0x91	; 145
    318c:	f1 4f       	sbci	r31, 0xF1	; 241
    318e:	80 81       	ld	r24, Z
    3190:	81 11       	cpse	r24, r1
    3192:	06 c0       	rjmp	.+12     	; 0x31a0 <vTaskSwitchContext+0x36>
    3194:	80 91 42 0e 	lds	r24, 0x0E42
    3198:	81 50       	subi	r24, 0x01	; 1
    319a:	80 93 42 0e 	sts	0x0E42, r24
    319e:	f0 cf       	rjmp	.-32     	; 0x3180 <vTaskSwitchContext+0x16>
    31a0:	e0 91 42 0e 	lds	r30, 0x0E42
    31a4:	89 e0       	ldi	r24, 0x09	; 9
    31a6:	e8 9f       	mul	r30, r24
    31a8:	f0 01       	movw	r30, r0
    31aa:	11 24       	eor	r1, r1
    31ac:	e1 59       	subi	r30, 0x91	; 145
    31ae:	f1 4f       	sbci	r31, 0xF1	; 241
    31b0:	a1 81       	ldd	r26, Z+1	; 0x01
    31b2:	b2 81       	ldd	r27, Z+2	; 0x02
    31b4:	12 96       	adiw	r26, 0x02	; 2
    31b6:	0d 90       	ld	r0, X+
    31b8:	bc 91       	ld	r27, X
    31ba:	a0 2d       	mov	r26, r0
    31bc:	b2 83       	std	Z+2, r27	; 0x02
    31be:	a1 83       	std	Z+1, r26	; 0x01
    31c0:	cf 01       	movw	r24, r30
    31c2:	03 96       	adiw	r24, 0x03	; 3
    31c4:	a8 17       	cp	r26, r24
    31c6:	b9 07       	cpc	r27, r25
    31c8:	31 f4       	brne	.+12     	; 0x31d6 <vTaskSwitchContext+0x6c>
    31ca:	12 96       	adiw	r26, 0x02	; 2
    31cc:	8d 91       	ld	r24, X+
    31ce:	9c 91       	ld	r25, X
    31d0:	13 97       	sbiw	r26, 0x03	; 3
    31d2:	92 83       	std	Z+2, r25	; 0x02
    31d4:	81 83       	std	Z+1, r24	; 0x01
    31d6:	01 80       	ldd	r0, Z+1	; 0x01
    31d8:	f2 81       	ldd	r31, Z+2	; 0x02
    31da:	e0 2d       	mov	r30, r0
    31dc:	86 81       	ldd	r24, Z+6	; 0x06
    31de:	97 81       	ldd	r25, Z+7	; 0x07
    31e0:	90 93 94 0e 	sts	0x0E94, r25
    31e4:	80 93 93 0e 	sts	0x0E93, r24
    31e8:	08 95       	ret

000031ea <twi_init>:
    31ea:	10 92 02 0f 	sts	0x0F02, r1
    31ee:	81 e0       	ldi	r24, 0x01	; 1
    31f0:	80 93 00 0f 	sts	0x0F00, r24
    31f4:	10 92 ff 0e 	sts	0x0EFF, r1
    31f8:	61 e0       	ldi	r22, 0x01	; 1
    31fa:	84 e1       	ldi	r24, 0x14	; 20
    31fc:	0e 94 5f 26 	call	0x4cbe	; 0x4cbe <digitalWrite>
    3200:	61 e0       	ldi	r22, 0x01	; 1
    3202:	85 e1       	ldi	r24, 0x15	; 21
    3204:	0e 94 5f 26 	call	0x4cbe	; 0x4cbe <digitalWrite>
    3208:	e9 eb       	ldi	r30, 0xB9	; 185
    320a:	f0 e0       	ldi	r31, 0x00	; 0
    320c:	80 81       	ld	r24, Z
    320e:	8e 7f       	andi	r24, 0xFE	; 254
    3210:	80 83       	st	Z, r24
    3212:	80 81       	ld	r24, Z
    3214:	8d 7f       	andi	r24, 0xFD	; 253
    3216:	80 83       	st	Z, r24
    3218:	88 e4       	ldi	r24, 0x48	; 72
    321a:	80 93 b8 00 	sts	0x00B8, r24
    321e:	85 e4       	ldi	r24, 0x45	; 69
    3220:	80 93 bc 00 	sts	0x00BC, r24
    3224:	08 95       	ret

00003226 <twi_readFrom>:
    3226:	41 32       	cpi	r20, 0x21	; 33
    3228:	08 f0       	brcs	.+2      	; 0x322c <twi_readFrom+0x6>
    322a:	3f c0       	rjmp	.+126    	; 0x32aa <twi_readFrom+0x84>
    322c:	90 91 02 0f 	lds	r25, 0x0F02
    3230:	91 11       	cpse	r25, r1
    3232:	fc cf       	rjmp	.-8      	; 0x322c <twi_readFrom+0x6>
    3234:	91 e0       	ldi	r25, 0x01	; 1
    3236:	90 93 02 0f 	sts	0x0F02, r25
    323a:	20 93 00 0f 	sts	0x0F00, r18
    323e:	2f ef       	ldi	r18, 0xFF	; 255
    3240:	20 93 95 0e 	sts	0x0E95, r18
    3244:	10 92 da 0e 	sts	0x0EDA, r1
    3248:	24 0f       	add	r18, r20
    324a:	20 93 d9 0e 	sts	0x0ED9, r18
    324e:	90 93 01 0f 	sts	0x0F01, r25
    3252:	90 91 01 0f 	lds	r25, 0x0F01
    3256:	88 0f       	add	r24, r24
    3258:	89 2b       	or	r24, r25
    325a:	80 93 01 0f 	sts	0x0F01, r24
    325e:	80 91 ff 0e 	lds	r24, 0x0EFF
    3262:	81 30       	cpi	r24, 0x01	; 1
    3264:	41 f4       	brne	.+16     	; 0x3276 <twi_readFrom+0x50>
    3266:	10 92 ff 0e 	sts	0x0EFF, r1
    326a:	80 91 01 0f 	lds	r24, 0x0F01
    326e:	80 93 bb 00 	sts	0x00BB, r24
    3272:	85 ec       	ldi	r24, 0xC5	; 197
    3274:	01 c0       	rjmp	.+2      	; 0x3278 <twi_readFrom+0x52>
    3276:	85 ee       	ldi	r24, 0xE5	; 229
    3278:	80 93 bc 00 	sts	0x00BC, r24
    327c:	80 91 02 0f 	lds	r24, 0x0F02
    3280:	81 30       	cpi	r24, 0x01	; 1
    3282:	e1 f3       	breq	.-8      	; 0x327c <twi_readFrom+0x56>
    3284:	80 91 da 0e 	lds	r24, 0x0EDA
    3288:	84 17       	cp	r24, r20
    328a:	10 f4       	brcc	.+4      	; 0x3290 <twi_readFrom+0x6a>
    328c:	40 91 da 0e 	lds	r20, 0x0EDA
    3290:	2b ed       	ldi	r18, 0xDB	; 219
    3292:	3e e0       	ldi	r19, 0x0E	; 14
    3294:	fb 01       	movw	r30, r22
    3296:	d9 01       	movw	r26, r18
    3298:	8a 2f       	mov	r24, r26
    329a:	82 1b       	sub	r24, r18
    329c:	84 17       	cp	r24, r20
    329e:	18 f4       	brcc	.+6      	; 0x32a6 <twi_readFrom+0x80>
    32a0:	8d 91       	ld	r24, X+
    32a2:	81 93       	st	Z+, r24
    32a4:	f9 cf       	rjmp	.-14     	; 0x3298 <twi_readFrom+0x72>
    32a6:	84 2f       	mov	r24, r20
    32a8:	08 95       	ret
    32aa:	80 e0       	ldi	r24, 0x00	; 0
    32ac:	08 95       	ret

000032ae <twi_writeTo>:
    32ae:	0f 93       	push	r16
    32b0:	41 32       	cpi	r20, 0x21	; 33
    32b2:	08 f0       	brcs	.+2      	; 0x32b6 <twi_writeTo+0x8>
    32b4:	46 c0       	rjmp	.+140    	; 0x3342 <twi_writeTo+0x94>
    32b6:	90 91 02 0f 	lds	r25, 0x0F02
    32ba:	91 11       	cpse	r25, r1
    32bc:	fc cf       	rjmp	.-8      	; 0x32b6 <twi_writeTo+0x8>
    32be:	92 e0       	ldi	r25, 0x02	; 2
    32c0:	90 93 02 0f 	sts	0x0F02, r25
    32c4:	00 93 00 0f 	sts	0x0F00, r16
    32c8:	9f ef       	ldi	r25, 0xFF	; 255
    32ca:	90 93 95 0e 	sts	0x0E95, r25
    32ce:	10 92 da 0e 	sts	0x0EDA, r1
    32d2:	40 93 d9 0e 	sts	0x0ED9, r20
    32d6:	fb 01       	movw	r30, r22
    32d8:	6b ed       	ldi	r22, 0xDB	; 219
    32da:	7e e0       	ldi	r23, 0x0E	; 14
    32dc:	db 01       	movw	r26, r22
    32de:	9a 2f       	mov	r25, r26
    32e0:	96 1b       	sub	r25, r22
    32e2:	94 17       	cp	r25, r20
    32e4:	18 f4       	brcc	.+6      	; 0x32ec <twi_writeTo+0x3e>
    32e6:	91 91       	ld	r25, Z+
    32e8:	9d 93       	st	X+, r25
    32ea:	f9 cf       	rjmp	.-14     	; 0x32de <twi_writeTo+0x30>
    32ec:	10 92 01 0f 	sts	0x0F01, r1
    32f0:	90 91 01 0f 	lds	r25, 0x0F01
    32f4:	88 0f       	add	r24, r24
    32f6:	89 2b       	or	r24, r25
    32f8:	80 93 01 0f 	sts	0x0F01, r24
    32fc:	80 91 ff 0e 	lds	r24, 0x0EFF
    3300:	81 30       	cpi	r24, 0x01	; 1
    3302:	41 f4       	brne	.+16     	; 0x3314 <twi_writeTo+0x66>
    3304:	10 92 ff 0e 	sts	0x0EFF, r1
    3308:	80 91 01 0f 	lds	r24, 0x0F01
    330c:	80 93 bb 00 	sts	0x00BB, r24
    3310:	85 ec       	ldi	r24, 0xC5	; 197
    3312:	01 c0       	rjmp	.+2      	; 0x3316 <twi_writeTo+0x68>
    3314:	85 ee       	ldi	r24, 0xE5	; 229
    3316:	80 93 bc 00 	sts	0x00BC, r24
    331a:	22 23       	and	r18, r18
    331c:	21 f0       	breq	.+8      	; 0x3326 <twi_writeTo+0x78>
    331e:	80 91 02 0f 	lds	r24, 0x0F02
    3322:	82 30       	cpi	r24, 0x02	; 2
    3324:	e1 f3       	breq	.-8      	; 0x331e <twi_writeTo+0x70>
    3326:	80 91 95 0e 	lds	r24, 0x0E95
    332a:	8f 3f       	cpi	r24, 0xFF	; 255
    332c:	61 f0       	breq	.+24     	; 0x3346 <twi_writeTo+0x98>
    332e:	80 91 95 0e 	lds	r24, 0x0E95
    3332:	80 32       	cpi	r24, 0x20	; 32
    3334:	51 f0       	breq	.+20     	; 0x334a <twi_writeTo+0x9c>
    3336:	80 91 95 0e 	lds	r24, 0x0E95
    333a:	80 33       	cpi	r24, 0x30	; 48
    333c:	41 f4       	brne	.+16     	; 0x334e <twi_writeTo+0xa0>
    333e:	83 e0       	ldi	r24, 0x03	; 3
    3340:	07 c0       	rjmp	.+14     	; 0x3350 <twi_writeTo+0xa2>
    3342:	81 e0       	ldi	r24, 0x01	; 1
    3344:	05 c0       	rjmp	.+10     	; 0x3350 <twi_writeTo+0xa2>
    3346:	80 e0       	ldi	r24, 0x00	; 0
    3348:	03 c0       	rjmp	.+6      	; 0x3350 <twi_writeTo+0xa2>
    334a:	82 e0       	ldi	r24, 0x02	; 2
    334c:	01 c0       	rjmp	.+2      	; 0x3350 <twi_writeTo+0xa2>
    334e:	84 e0       	ldi	r24, 0x04	; 4
    3350:	0f 91       	pop	r16
    3352:	08 95       	ret

00003354 <twi_transmit>:
    3354:	61 32       	cpi	r22, 0x21	; 33
    3356:	98 f4       	brcc	.+38     	; 0x337e <twi_transmit+0x2a>
    3358:	20 91 02 0f 	lds	r18, 0x0F02
    335c:	24 30       	cpi	r18, 0x04	; 4
    335e:	89 f4       	brne	.+34     	; 0x3382 <twi_transmit+0x2e>
    3360:	60 93 b7 0e 	sts	0x0EB7, r22
    3364:	fc 01       	movw	r30, r24
    3366:	89 eb       	ldi	r24, 0xB9	; 185
    3368:	9e e0       	ldi	r25, 0x0E	; 14
    336a:	dc 01       	movw	r26, r24
    336c:	2a 2f       	mov	r18, r26
    336e:	28 1b       	sub	r18, r24
    3370:	26 17       	cp	r18, r22
    3372:	18 f4       	brcc	.+6      	; 0x337a <twi_transmit+0x26>
    3374:	21 91       	ld	r18, Z+
    3376:	2d 93       	st	X+, r18
    3378:	f9 cf       	rjmp	.-14     	; 0x336c <twi_transmit+0x18>
    337a:	80 e0       	ldi	r24, 0x00	; 0
    337c:	08 95       	ret
    337e:	81 e0       	ldi	r24, 0x01	; 1
    3380:	08 95       	ret
    3382:	82 e0       	ldi	r24, 0x02	; 2
    3384:	08 95       	ret

00003386 <twi_stop>:
    3386:	85 ed       	ldi	r24, 0xD5	; 213
    3388:	80 93 bc 00 	sts	0x00BC, r24
    338c:	80 91 bc 00 	lds	r24, 0x00BC
    3390:	84 fd       	sbrc	r24, 4
    3392:	fc cf       	rjmp	.-8      	; 0x338c <twi_stop+0x6>
    3394:	10 92 02 0f 	sts	0x0F02, r1
    3398:	08 95       	ret

0000339a <twi_releaseBus>:
    339a:	85 ec       	ldi	r24, 0xC5	; 197
    339c:	80 93 bc 00 	sts	0x00BC, r24
    33a0:	10 92 02 0f 	sts	0x0F02, r1
    33a4:	08 95       	ret

000033a6 <__vector_39>:
    33a6:	1f 92       	push	r1
    33a8:	0f 92       	push	r0
    33aa:	0f b6       	in	r0, 0x3f	; 63
    33ac:	0f 92       	push	r0
    33ae:	11 24       	eor	r1, r1
    33b0:	0b b6       	in	r0, 0x3b	; 59
    33b2:	0f 92       	push	r0
    33b4:	2f 93       	push	r18
    33b6:	3f 93       	push	r19
    33b8:	4f 93       	push	r20
    33ba:	5f 93       	push	r21
    33bc:	6f 93       	push	r22
    33be:	7f 93       	push	r23
    33c0:	8f 93       	push	r24
    33c2:	9f 93       	push	r25
    33c4:	af 93       	push	r26
    33c6:	bf 93       	push	r27
    33c8:	ef 93       	push	r30
    33ca:	ff 93       	push	r31
    33cc:	80 91 b9 00 	lds	r24, 0x00B9
    33d0:	88 7f       	andi	r24, 0xF8	; 248
    33d2:	80 36       	cpi	r24, 0x60	; 96
    33d4:	09 f4       	brne	.+2      	; 0x33d8 <__vector_39+0x32>
    33d6:	9c c0       	rjmp	.+312    	; 0x3510 <__vector_39+0x16a>
    33d8:	68 f5       	brcc	.+90     	; 0x3434 <__vector_39+0x8e>
    33da:	88 32       	cpi	r24, 0x28	; 40
    33dc:	09 f4       	brne	.+2      	; 0x33e0 <__vector_39+0x3a>
    33de:	5b c0       	rjmp	.+182    	; 0x3496 <__vector_39+0xf0>
    33e0:	90 f4       	brcc	.+36     	; 0x3406 <__vector_39+0x60>
    33e2:	80 31       	cpi	r24, 0x10	; 16
    33e4:	09 f4       	brne	.+2      	; 0x33e8 <__vector_39+0x42>
    33e6:	54 c0       	rjmp	.+168    	; 0x3490 <__vector_39+0xea>
    33e8:	38 f4       	brcc	.+14     	; 0x33f8 <__vector_39+0x52>
    33ea:	88 23       	and	r24, r24
    33ec:	09 f4       	brne	.+2      	; 0x33f0 <__vector_39+0x4a>
    33ee:	f3 c0       	rjmp	.+486    	; 0x35d6 <__vector_39+0x230>
    33f0:	88 30       	cpi	r24, 0x08	; 8
    33f2:	09 f4       	brne	.+2      	; 0x33f6 <__vector_39+0x50>
    33f4:	4d c0       	rjmp	.+154    	; 0x3490 <__vector_39+0xea>
    33f6:	f2 c0       	rjmp	.+484    	; 0x35dc <__vector_39+0x236>
    33f8:	88 31       	cpi	r24, 0x18	; 24
    33fa:	09 f4       	brne	.+2      	; 0x33fe <__vector_39+0x58>
    33fc:	4c c0       	rjmp	.+152    	; 0x3496 <__vector_39+0xf0>
    33fe:	80 32       	cpi	r24, 0x20	; 32
    3400:	09 f4       	brne	.+2      	; 0x3404 <__vector_39+0x5e>
    3402:	5d c0       	rjmp	.+186    	; 0x34be <__vector_39+0x118>
    3404:	eb c0       	rjmp	.+470    	; 0x35dc <__vector_39+0x236>
    3406:	80 34       	cpi	r24, 0x40	; 64
    3408:	09 f4       	brne	.+2      	; 0x340c <__vector_39+0x66>
    340a:	68 c0       	rjmp	.+208    	; 0x34dc <__vector_39+0x136>
    340c:	48 f4       	brcc	.+18     	; 0x3420 <__vector_39+0x7a>
    340e:	80 33       	cpi	r24, 0x30	; 48
    3410:	09 f4       	brne	.+2      	; 0x3414 <__vector_39+0x6e>
    3412:	55 c0       	rjmp	.+170    	; 0x34be <__vector_39+0x118>
    3414:	88 33       	cpi	r24, 0x38	; 56
    3416:	09 f0       	breq	.+2      	; 0x341a <__vector_39+0x74>
    3418:	e1 c0       	rjmp	.+450    	; 0x35dc <__vector_39+0x236>
    341a:	80 93 95 0e 	sts	0x0E95, r24
    341e:	a7 c0       	rjmp	.+334    	; 0x356e <__vector_39+0x1c8>
    3420:	80 35       	cpi	r24, 0x50	; 80
    3422:	09 f4       	brne	.+2      	; 0x3426 <__vector_39+0x80>
    3424:	4f c0       	rjmp	.+158    	; 0x34c4 <__vector_39+0x11e>
    3426:	88 35       	cpi	r24, 0x58	; 88
    3428:	09 f4       	brne	.+2      	; 0x342c <__vector_39+0x86>
    342a:	5d c0       	rjmp	.+186    	; 0x34e6 <__vector_39+0x140>
    342c:	88 34       	cpi	r24, 0x48	; 72
    342e:	09 f0       	breq	.+2      	; 0x3432 <__vector_39+0x8c>
    3430:	d5 c0       	rjmp	.+426    	; 0x35dc <__vector_39+0x236>
    3432:	d3 c0       	rjmp	.+422    	; 0x35da <__vector_39+0x234>
    3434:	88 39       	cpi	r24, 0x98	; 152
    3436:	09 f4       	brne	.+2      	; 0x343a <__vector_39+0x94>
    3438:	c4 c0       	rjmp	.+392    	; 0x35c2 <__vector_39+0x21c>
    343a:	a8 f4       	brcc	.+42     	; 0x3466 <__vector_39+0xc0>
    343c:	88 37       	cpi	r24, 0x78	; 120
    343e:	09 f4       	brne	.+2      	; 0x3442 <__vector_39+0x9c>
    3440:	67 c0       	rjmp	.+206    	; 0x3510 <__vector_39+0x16a>
    3442:	38 f4       	brcc	.+14     	; 0x3452 <__vector_39+0xac>
    3444:	88 36       	cpi	r24, 0x68	; 104
    3446:	09 f4       	brne	.+2      	; 0x344a <__vector_39+0xa4>
    3448:	63 c0       	rjmp	.+198    	; 0x3510 <__vector_39+0x16a>
    344a:	80 37       	cpi	r24, 0x70	; 112
    344c:	09 f4       	brne	.+2      	; 0x3450 <__vector_39+0xaa>
    344e:	60 c0       	rjmp	.+192    	; 0x3510 <__vector_39+0x16a>
    3450:	c5 c0       	rjmp	.+394    	; 0x35dc <__vector_39+0x236>
    3452:	88 38       	cpi	r24, 0x88	; 136
    3454:	09 f4       	brne	.+2      	; 0x3458 <__vector_39+0xb2>
    3456:	b5 c0       	rjmp	.+362    	; 0x35c2 <__vector_39+0x21c>
    3458:	80 39       	cpi	r24, 0x90	; 144
    345a:	09 f4       	brne	.+2      	; 0x345e <__vector_39+0xb8>
    345c:	5f c0       	rjmp	.+190    	; 0x351c <__vector_39+0x176>
    345e:	80 38       	cpi	r24, 0x80	; 128
    3460:	09 f0       	breq	.+2      	; 0x3464 <__vector_39+0xbe>
    3462:	bc c0       	rjmp	.+376    	; 0x35dc <__vector_39+0x236>
    3464:	5b c0       	rjmp	.+182    	; 0x351c <__vector_39+0x176>
    3466:	80 3b       	cpi	r24, 0xB0	; 176
    3468:	09 f4       	brne	.+2      	; 0x346c <__vector_39+0xc6>
    346a:	83 c0       	rjmp	.+262    	; 0x3572 <__vector_39+0x1cc>
    346c:	38 f4       	brcc	.+14     	; 0x347c <__vector_39+0xd6>
    346e:	80 3a       	cpi	r24, 0xA0	; 160
    3470:	09 f4       	brne	.+2      	; 0x3474 <__vector_39+0xce>
    3472:	66 c0       	rjmp	.+204    	; 0x3540 <__vector_39+0x19a>
    3474:	88 3a       	cpi	r24, 0xA8	; 168
    3476:	09 f4       	brne	.+2      	; 0x347a <__vector_39+0xd4>
    3478:	7c c0       	rjmp	.+248    	; 0x3572 <__vector_39+0x1cc>
    347a:	b0 c0       	rjmp	.+352    	; 0x35dc <__vector_39+0x236>
    347c:	80 3c       	cpi	r24, 0xC0	; 192
    347e:	09 f4       	brne	.+2      	; 0x3482 <__vector_39+0xdc>
    3480:	a4 c0       	rjmp	.+328    	; 0x35ca <__vector_39+0x224>
    3482:	88 3c       	cpi	r24, 0xC8	; 200
    3484:	09 f4       	brne	.+2      	; 0x3488 <__vector_39+0xe2>
    3486:	a1 c0       	rjmp	.+322    	; 0x35ca <__vector_39+0x224>
    3488:	88 3b       	cpi	r24, 0xB8	; 184
    348a:	09 f4       	brne	.+2      	; 0x348e <__vector_39+0xe8>
    348c:	87 c0       	rjmp	.+270    	; 0x359c <__vector_39+0x1f6>
    348e:	a6 c0       	rjmp	.+332    	; 0x35dc <__vector_39+0x236>
    3490:	80 91 01 0f 	lds	r24, 0x0F01
    3494:	10 c0       	rjmp	.+32     	; 0x34b6 <__vector_39+0x110>
    3496:	90 91 da 0e 	lds	r25, 0x0EDA
    349a:	80 91 d9 0e 	lds	r24, 0x0ED9
    349e:	98 17       	cp	r25, r24
    34a0:	70 f5       	brcc	.+92     	; 0x34fe <__vector_39+0x158>
    34a2:	e0 91 da 0e 	lds	r30, 0x0EDA
    34a6:	81 e0       	ldi	r24, 0x01	; 1
    34a8:	8e 0f       	add	r24, r30
    34aa:	80 93 da 0e 	sts	0x0EDA, r24
    34ae:	f0 e0       	ldi	r31, 0x00	; 0
    34b0:	e5 52       	subi	r30, 0x25	; 37
    34b2:	f1 4f       	sbci	r31, 0xF1	; 241
    34b4:	80 81       	ld	r24, Z
    34b6:	80 93 bb 00 	sts	0x00BB, r24
    34ba:	85 ec       	ldi	r24, 0xC5	; 197
    34bc:	83 c0       	rjmp	.+262    	; 0x35c4 <__vector_39+0x21e>
    34be:	80 93 95 0e 	sts	0x0E95, r24
    34c2:	8b c0       	rjmp	.+278    	; 0x35da <__vector_39+0x234>
    34c4:	e0 91 da 0e 	lds	r30, 0x0EDA
    34c8:	81 e0       	ldi	r24, 0x01	; 1
    34ca:	8e 0f       	add	r24, r30
    34cc:	80 93 da 0e 	sts	0x0EDA, r24
    34d0:	80 91 bb 00 	lds	r24, 0x00BB
    34d4:	f0 e0       	ldi	r31, 0x00	; 0
    34d6:	e5 52       	subi	r30, 0x25	; 37
    34d8:	f1 4f       	sbci	r31, 0xF1	; 241
    34da:	80 83       	st	Z, r24
    34dc:	90 91 da 0e 	lds	r25, 0x0EDA
    34e0:	80 91 d9 0e 	lds	r24, 0x0ED9
    34e4:	6b c0       	rjmp	.+214    	; 0x35bc <__vector_39+0x216>
    34e6:	e0 91 da 0e 	lds	r30, 0x0EDA
    34ea:	81 e0       	ldi	r24, 0x01	; 1
    34ec:	8e 0f       	add	r24, r30
    34ee:	80 93 da 0e 	sts	0x0EDA, r24
    34f2:	80 91 bb 00 	lds	r24, 0x00BB
    34f6:	f0 e0       	ldi	r31, 0x00	; 0
    34f8:	e5 52       	subi	r30, 0x25	; 37
    34fa:	f1 4f       	sbci	r31, 0xF1	; 241
    34fc:	80 83       	st	Z, r24
    34fe:	80 91 00 0f 	lds	r24, 0x0F00
    3502:	81 11       	cpse	r24, r1
    3504:	6a c0       	rjmp	.+212    	; 0x35da <__vector_39+0x234>
    3506:	81 e0       	ldi	r24, 0x01	; 1
    3508:	80 93 ff 0e 	sts	0x0EFF, r24
    350c:	84 ea       	ldi	r24, 0xA4	; 164
    350e:	5e c0       	rjmp	.+188    	; 0x35cc <__vector_39+0x226>
    3510:	83 e0       	ldi	r24, 0x03	; 3
    3512:	80 93 02 0f 	sts	0x0F02, r24
    3516:	10 92 96 0e 	sts	0x0E96, r1
    351a:	cf cf       	rjmp	.-98     	; 0x34ba <__vector_39+0x114>
    351c:	80 91 96 0e 	lds	r24, 0x0E96
    3520:	80 32       	cpi	r24, 0x20	; 32
    3522:	08 f0       	brcs	.+2      	; 0x3526 <__vector_39+0x180>
    3524:	4e c0       	rjmp	.+156    	; 0x35c2 <__vector_39+0x21c>
    3526:	e0 91 96 0e 	lds	r30, 0x0E96
    352a:	81 e0       	ldi	r24, 0x01	; 1
    352c:	8e 0f       	add	r24, r30
    352e:	80 93 96 0e 	sts	0x0E96, r24
    3532:	80 91 bb 00 	lds	r24, 0x00BB
    3536:	f0 e0       	ldi	r31, 0x00	; 0
    3538:	e9 56       	subi	r30, 0x69	; 105
    353a:	f1 4f       	sbci	r31, 0xF1	; 241
    353c:	80 83       	st	Z, r24
    353e:	bd cf       	rjmp	.-134    	; 0x34ba <__vector_39+0x114>
    3540:	80 91 96 0e 	lds	r24, 0x0E96
    3544:	80 32       	cpi	r24, 0x20	; 32
    3546:	30 f4       	brcc	.+12     	; 0x3554 <__vector_39+0x1ae>
    3548:	e0 91 96 0e 	lds	r30, 0x0E96
    354c:	f0 e0       	ldi	r31, 0x00	; 0
    354e:	e9 56       	subi	r30, 0x69	; 105
    3550:	f1 4f       	sbci	r31, 0xF1	; 241
    3552:	10 82       	st	Z, r1
    3554:	18 df       	rcall	.-464    	; 0x3386 <twi_stop>
    3556:	60 91 96 0e 	lds	r22, 0x0E96
    355a:	70 e0       	ldi	r23, 0x00	; 0
    355c:	e0 91 fb 0e 	lds	r30, 0x0EFB
    3560:	f0 91 fc 0e 	lds	r31, 0x0EFC
    3564:	87 e9       	ldi	r24, 0x97	; 151
    3566:	9e e0       	ldi	r25, 0x0E	; 14
    3568:	19 95       	eicall
    356a:	10 92 96 0e 	sts	0x0E96, r1
    356e:	15 df       	rcall	.-470    	; 0x339a <twi_releaseBus>
    3570:	35 c0       	rjmp	.+106    	; 0x35dc <__vector_39+0x236>
    3572:	84 e0       	ldi	r24, 0x04	; 4
    3574:	80 93 02 0f 	sts	0x0F02, r24
    3578:	10 92 b8 0e 	sts	0x0EB8, r1
    357c:	10 92 b7 0e 	sts	0x0EB7, r1
    3580:	e0 91 fd 0e 	lds	r30, 0x0EFD
    3584:	f0 91 fe 0e 	lds	r31, 0x0EFE
    3588:	19 95       	eicall
    358a:	80 91 b7 0e 	lds	r24, 0x0EB7
    358e:	81 11       	cpse	r24, r1
    3590:	05 c0       	rjmp	.+10     	; 0x359c <__vector_39+0x1f6>
    3592:	81 e0       	ldi	r24, 0x01	; 1
    3594:	80 93 b7 0e 	sts	0x0EB7, r24
    3598:	10 92 b9 0e 	sts	0x0EB9, r1
    359c:	e0 91 b8 0e 	lds	r30, 0x0EB8
    35a0:	81 e0       	ldi	r24, 0x01	; 1
    35a2:	8e 0f       	add	r24, r30
    35a4:	80 93 b8 0e 	sts	0x0EB8, r24
    35a8:	f0 e0       	ldi	r31, 0x00	; 0
    35aa:	e7 54       	subi	r30, 0x47	; 71
    35ac:	f1 4f       	sbci	r31, 0xF1	; 241
    35ae:	80 81       	ld	r24, Z
    35b0:	80 93 bb 00 	sts	0x00BB, r24
    35b4:	90 91 b8 0e 	lds	r25, 0x0EB8
    35b8:	80 91 b7 0e 	lds	r24, 0x0EB7
    35bc:	98 17       	cp	r25, r24
    35be:	08 f4       	brcc	.+2      	; 0x35c2 <__vector_39+0x21c>
    35c0:	7c cf       	rjmp	.-264    	; 0x34ba <__vector_39+0x114>
    35c2:	85 e8       	ldi	r24, 0x85	; 133
    35c4:	80 93 bc 00 	sts	0x00BC, r24
    35c8:	09 c0       	rjmp	.+18     	; 0x35dc <__vector_39+0x236>
    35ca:	85 ec       	ldi	r24, 0xC5	; 197
    35cc:	80 93 bc 00 	sts	0x00BC, r24
    35d0:	10 92 02 0f 	sts	0x0F02, r1
    35d4:	03 c0       	rjmp	.+6      	; 0x35dc <__vector_39+0x236>
    35d6:	10 92 95 0e 	sts	0x0E95, r1
    35da:	d5 de       	rcall	.-598    	; 0x3386 <twi_stop>
    35dc:	ff 91       	pop	r31
    35de:	ef 91       	pop	r30
    35e0:	bf 91       	pop	r27
    35e2:	af 91       	pop	r26
    35e4:	9f 91       	pop	r25
    35e6:	8f 91       	pop	r24
    35e8:	7f 91       	pop	r23
    35ea:	6f 91       	pop	r22
    35ec:	5f 91       	pop	r21
    35ee:	4f 91       	pop	r20
    35f0:	3f 91       	pop	r19
    35f2:	2f 91       	pop	r18
    35f4:	0f 90       	pop	r0
    35f6:	0b be       	out	0x3b, r0	; 59
    35f8:	0f 90       	pop	r0
    35fa:	0f be       	out	0x3f, r0	; 63
    35fc:	0f 90       	pop	r0
    35fe:	1f 90       	pop	r1
    3600:	18 95       	reti

00003602 <_ZN7TwoWire9availableEv>:
    3602:	80 91 33 0f 	lds	r24, 0x0F33
    3606:	90 e0       	ldi	r25, 0x00	; 0
    3608:	20 91 34 0f 	lds	r18, 0x0F34
    360c:	82 1b       	sub	r24, r18
    360e:	91 09       	sbc	r25, r1
    3610:	08 95       	ret

00003612 <_ZN7TwoWire4readEv>:
    3612:	20 91 34 0f 	lds	r18, 0x0F34
    3616:	80 91 33 0f 	lds	r24, 0x0F33
    361a:	28 17       	cp	r18, r24
    361c:	50 f4       	brcc	.+20     	; 0x3632 <_ZN7TwoWire4readEv+0x20>
    361e:	e2 2f       	mov	r30, r18
    3620:	f0 e0       	ldi	r31, 0x00	; 0
    3622:	eb 5c       	subi	r30, 0xCB	; 203
    3624:	f0 4f       	sbci	r31, 0xF0	; 240
    3626:	80 81       	ld	r24, Z
    3628:	90 e0       	ldi	r25, 0x00	; 0
    362a:	2f 5f       	subi	r18, 0xFF	; 255
    362c:	20 93 34 0f 	sts	0x0F34, r18
    3630:	08 95       	ret
    3632:	8f ef       	ldi	r24, 0xFF	; 255
    3634:	9f ef       	ldi	r25, 0xFF	; 255
    3636:	08 95       	ret

00003638 <_ZN7TwoWire4peekEv>:
    3638:	e0 91 34 0f 	lds	r30, 0x0F34
    363c:	80 91 33 0f 	lds	r24, 0x0F33
    3640:	e8 17       	cp	r30, r24
    3642:	30 f4       	brcc	.+12     	; 0x3650 <_ZN7TwoWire4peekEv+0x18>
    3644:	f0 e0       	ldi	r31, 0x00	; 0
    3646:	eb 5c       	subi	r30, 0xCB	; 203
    3648:	f0 4f       	sbci	r31, 0xF0	; 240
    364a:	80 81       	ld	r24, Z
    364c:	90 e0       	ldi	r25, 0x00	; 0
    364e:	08 95       	ret
    3650:	8f ef       	ldi	r24, 0xFF	; 255
    3652:	9f ef       	ldi	r25, 0xFF	; 255
    3654:	08 95       	ret

00003656 <_ZN7TwoWire5flushEv>:
    3656:	08 95       	ret

00003658 <_ZN7TwoWire5writeEPKhj>:
    3658:	cf 92       	push	r12
    365a:	df 92       	push	r13
    365c:	ef 92       	push	r14
    365e:	ff 92       	push	r15
    3660:	0f 93       	push	r16
    3662:	1f 93       	push	r17
    3664:	cf 93       	push	r28
    3666:	df 93       	push	r29
    3668:	7c 01       	movw	r14, r24
    366a:	cb 01       	movw	r24, r22
    366c:	8a 01       	movw	r16, r20
    366e:	20 91 0f 0f 	lds	r18, 0x0F0F
    3672:	22 23       	and	r18, r18
    3674:	89 f0       	breq	.+34     	; 0x3698 <_ZN7TwoWire5writeEPKhj+0x40>
    3676:	eb 01       	movw	r28, r22
    3678:	6b 01       	movw	r12, r22
    367a:	c4 0e       	add	r12, r20
    367c:	d5 1e       	adc	r13, r21
    367e:	cc 15       	cp	r28, r12
    3680:	dd 05       	cpc	r29, r13
    3682:	61 f0       	breq	.+24     	; 0x369c <_ZN7TwoWire5writeEPKhj+0x44>
    3684:	69 91       	ld	r22, Y+
    3686:	d7 01       	movw	r26, r14
    3688:	ed 91       	ld	r30, X+
    368a:	fc 91       	ld	r31, X
    368c:	01 90       	ld	r0, Z+
    368e:	f0 81       	ld	r31, Z
    3690:	e0 2d       	mov	r30, r0
    3692:	c7 01       	movw	r24, r14
    3694:	19 95       	eicall
    3696:	f3 cf       	rjmp	.-26     	; 0x367e <_ZN7TwoWire5writeEPKhj+0x26>
    3698:	64 2f       	mov	r22, r20
    369a:	5c de       	rcall	.-840    	; 0x3354 <twi_transmit>
    369c:	c8 01       	movw	r24, r16
    369e:	df 91       	pop	r29
    36a0:	cf 91       	pop	r28
    36a2:	1f 91       	pop	r17
    36a4:	0f 91       	pop	r16
    36a6:	ff 90       	pop	r15
    36a8:	ef 90       	pop	r14
    36aa:	df 90       	pop	r13
    36ac:	cf 90       	pop	r12
    36ae:	08 95       	ret

000036b0 <_ZN7TwoWire5writeEh>:
    36b0:	cf 93       	push	r28
    36b2:	df 93       	push	r29
    36b4:	1f 92       	push	r1
    36b6:	cd b7       	in	r28, 0x3d	; 61
    36b8:	de b7       	in	r29, 0x3e	; 62
    36ba:	69 83       	std	Y+1, r22	; 0x01
    36bc:	20 91 0f 0f 	lds	r18, 0x0F0F
    36c0:	22 23       	and	r18, r18
    36c2:	d1 f0       	breq	.+52     	; 0x36f8 <_ZN7TwoWire5writeEh+0x48>
    36c4:	20 91 10 0f 	lds	r18, 0x0F10
    36c8:	20 32       	cpi	r18, 0x20	; 32
    36ca:	40 f0       	brcs	.+16     	; 0x36dc <_ZN7TwoWire5writeEh+0x2c>
    36cc:	21 e0       	ldi	r18, 0x01	; 1
    36ce:	30 e0       	ldi	r19, 0x00	; 0
    36d0:	fc 01       	movw	r30, r24
    36d2:	33 83       	std	Z+3, r19	; 0x03
    36d4:	22 83       	std	Z+2, r18	; 0x02
    36d6:	80 e0       	ldi	r24, 0x00	; 0
    36d8:	90 e0       	ldi	r25, 0x00	; 0
    36da:	14 c0       	rjmp	.+40     	; 0x3704 <_ZN7TwoWire5writeEh+0x54>
    36dc:	80 91 11 0f 	lds	r24, 0x0F11
    36e0:	e8 2f       	mov	r30, r24
    36e2:	f0 e0       	ldi	r31, 0x00	; 0
    36e4:	ee 5e       	subi	r30, 0xEE	; 238
    36e6:	f0 4f       	sbci	r31, 0xF0	; 240
    36e8:	99 81       	ldd	r25, Y+1	; 0x01
    36ea:	90 83       	st	Z, r25
    36ec:	8f 5f       	subi	r24, 0xFF	; 255
    36ee:	80 93 11 0f 	sts	0x0F11, r24
    36f2:	80 93 10 0f 	sts	0x0F10, r24
    36f6:	04 c0       	rjmp	.+8      	; 0x3700 <_ZN7TwoWire5writeEh+0x50>
    36f8:	61 e0       	ldi	r22, 0x01	; 1
    36fa:	ce 01       	movw	r24, r28
    36fc:	01 96       	adiw	r24, 0x01	; 1
    36fe:	2a de       	rcall	.-940    	; 0x3354 <twi_transmit>
    3700:	81 e0       	ldi	r24, 0x01	; 1
    3702:	90 e0       	ldi	r25, 0x00	; 0
    3704:	0f 90       	pop	r0
    3706:	df 91       	pop	r29
    3708:	cf 91       	pop	r28
    370a:	08 95       	ret

0000370c <_ZN7TwoWireC1Ev>:
    370c:	fc 01       	movw	r30, r24
    370e:	13 82       	std	Z+3, r1	; 0x03
    3710:	12 82       	std	Z+2, r1	; 0x02
    3712:	48 ee       	ldi	r20, 0xE8	; 232
    3714:	53 e0       	ldi	r21, 0x03	; 3
    3716:	60 e0       	ldi	r22, 0x00	; 0
    3718:	70 e0       	ldi	r23, 0x00	; 0
    371a:	44 83       	std	Z+4, r20	; 0x04
    371c:	55 83       	std	Z+5, r21	; 0x05
    371e:	66 83       	std	Z+6, r22	; 0x06
    3720:	77 83       	std	Z+7, r23	; 0x07
    3722:	8f eb       	ldi	r24, 0xBF	; 191
    3724:	92 e0       	ldi	r25, 0x02	; 2
    3726:	91 83       	std	Z+1, r25	; 0x01
    3728:	80 83       	st	Z, r24
    372a:	08 95       	ret

0000372c <_ZN7TwoWire5beginEv>:
    372c:	10 92 34 0f 	sts	0x0F34, r1
    3730:	10 92 33 0f 	sts	0x0F33, r1
    3734:	10 92 11 0f 	sts	0x0F11, r1
    3738:	10 92 10 0f 	sts	0x0F10, r1
    373c:	56 cd       	rjmp	.-1364   	; 0x31ea <twi_init>

0000373e <_ZN7TwoWire11requestFromEhhh>:
    373e:	86 2f       	mov	r24, r22
    3740:	41 32       	cpi	r20, 0x21	; 33
    3742:	08 f0       	brcs	.+2      	; 0x3746 <_ZN7TwoWire11requestFromEhhh+0x8>
    3744:	40 e2       	ldi	r20, 0x20	; 32
    3746:	65 e3       	ldi	r22, 0x35	; 53
    3748:	7f e0       	ldi	r23, 0x0F	; 15
    374a:	6d dd       	rcall	.-1318   	; 0x3226 <twi_readFrom>
    374c:	10 92 34 0f 	sts	0x0F34, r1
    3750:	80 93 33 0f 	sts	0x0F33, r24
    3754:	08 95       	ret

00003756 <_ZN7TwoWire11requestFromEhh>:
    3756:	21 e0       	ldi	r18, 0x01	; 1
    3758:	f2 cf       	rjmp	.-28     	; 0x373e <_ZN7TwoWire11requestFromEhhh>

0000375a <_ZN7TwoWire17beginTransmissionEh>:
    375a:	81 e0       	ldi	r24, 0x01	; 1
    375c:	80 93 0f 0f 	sts	0x0F0F, r24
    3760:	60 93 32 0f 	sts	0x0F32, r22
    3764:	10 92 11 0f 	sts	0x0F11, r1
    3768:	10 92 10 0f 	sts	0x0F10, r1
    376c:	08 95       	ret

0000376e <_ZN7TwoWire15endTransmissionEh>:
    376e:	0f 93       	push	r16
    3770:	06 2f       	mov	r16, r22
    3772:	21 e0       	ldi	r18, 0x01	; 1
    3774:	40 91 10 0f 	lds	r20, 0x0F10
    3778:	62 e1       	ldi	r22, 0x12	; 18
    377a:	7f e0       	ldi	r23, 0x0F	; 15
    377c:	80 91 32 0f 	lds	r24, 0x0F32
    3780:	96 dd       	rcall	.-1236   	; 0x32ae <twi_writeTo>
    3782:	10 92 11 0f 	sts	0x0F11, r1
    3786:	10 92 10 0f 	sts	0x0F10, r1
    378a:	10 92 0f 0f 	sts	0x0F0F, r1
    378e:	0f 91       	pop	r16
    3790:	08 95       	ret

00003792 <_ZN7TwoWire15endTransmissionEv>:
    3792:	61 e0       	ldi	r22, 0x01	; 1
    3794:	ec cf       	rjmp	.-40     	; 0x376e <_ZN7TwoWire15endTransmissionEh>

00003796 <_GLOBAL__sub_I__ZN7TwoWire8rxBufferE>:
    3796:	83 e0       	ldi	r24, 0x03	; 3
    3798:	9f e0       	ldi	r25, 0x0F	; 15
    379a:	b8 cf       	rjmp	.-144    	; 0x370c <_ZN7TwoWireC1Ev>

0000379c <__subsf3>:
    379c:	50 58       	subi	r21, 0x80	; 128

0000379e <__addsf3>:
    379e:	bb 27       	eor	r27, r27
    37a0:	aa 27       	eor	r26, r26
    37a2:	0e d0       	rcall	.+28     	; 0x37c0 <__addsf3x>
    37a4:	65 c2       	rjmp	.+1226   	; 0x3c70 <__fp_round>
    37a6:	2e d2       	rcall	.+1116   	; 0x3c04 <__fp_pscA>
    37a8:	30 f0       	brcs	.+12     	; 0x37b6 <__addsf3+0x18>
    37aa:	33 d2       	rcall	.+1126   	; 0x3c12 <__fp_pscB>
    37ac:	20 f0       	brcs	.+8      	; 0x37b6 <__addsf3+0x18>
    37ae:	31 f4       	brne	.+12     	; 0x37bc <__addsf3+0x1e>
    37b0:	9f 3f       	cpi	r25, 0xFF	; 255
    37b2:	11 f4       	brne	.+4      	; 0x37b8 <__addsf3+0x1a>
    37b4:	1e f4       	brtc	.+6      	; 0x37bc <__addsf3+0x1e>
    37b6:	ed c1       	rjmp	.+986    	; 0x3b92 <__fp_nan>
    37b8:	0e f4       	brtc	.+2      	; 0x37bc <__addsf3+0x1e>
    37ba:	e0 95       	com	r30
    37bc:	e7 fb       	bst	r30, 7
    37be:	e3 c1       	rjmp	.+966    	; 0x3b86 <__fp_inf>

000037c0 <__addsf3x>:
    37c0:	e9 2f       	mov	r30, r25
    37c2:	78 d2       	rcall	.+1264   	; 0x3cb4 <__fp_split3>
    37c4:	80 f3       	brcs	.-32     	; 0x37a6 <__addsf3+0x8>
    37c6:	ba 17       	cp	r27, r26
    37c8:	62 07       	cpc	r22, r18
    37ca:	73 07       	cpc	r23, r19
    37cc:	84 07       	cpc	r24, r20
    37ce:	95 07       	cpc	r25, r21
    37d0:	18 f0       	brcs	.+6      	; 0x37d8 <__addsf3x+0x18>
    37d2:	71 f4       	brne	.+28     	; 0x37f0 <__addsf3x+0x30>
    37d4:	9e f5       	brtc	.+102    	; 0x383c <__addsf3x+0x7c>
    37d6:	90 c2       	rjmp	.+1312   	; 0x3cf8 <__fp_zero>
    37d8:	0e f4       	brtc	.+2      	; 0x37dc <__addsf3x+0x1c>
    37da:	e0 95       	com	r30
    37dc:	0b 2e       	mov	r0, r27
    37de:	ba 2f       	mov	r27, r26
    37e0:	a0 2d       	mov	r26, r0
    37e2:	0b 01       	movw	r0, r22
    37e4:	b9 01       	movw	r22, r18
    37e6:	90 01       	movw	r18, r0
    37e8:	0c 01       	movw	r0, r24
    37ea:	ca 01       	movw	r24, r20
    37ec:	a0 01       	movw	r20, r0
    37ee:	11 24       	eor	r1, r1
    37f0:	ff 27       	eor	r31, r31
    37f2:	59 1b       	sub	r21, r25
    37f4:	99 f0       	breq	.+38     	; 0x381c <__addsf3x+0x5c>
    37f6:	59 3f       	cpi	r21, 0xF9	; 249
    37f8:	50 f4       	brcc	.+20     	; 0x380e <__addsf3x+0x4e>
    37fa:	50 3e       	cpi	r21, 0xE0	; 224
    37fc:	68 f1       	brcs	.+90     	; 0x3858 <__addsf3x+0x98>
    37fe:	1a 16       	cp	r1, r26
    3800:	f0 40       	sbci	r31, 0x00	; 0
    3802:	a2 2f       	mov	r26, r18
    3804:	23 2f       	mov	r18, r19
    3806:	34 2f       	mov	r19, r20
    3808:	44 27       	eor	r20, r20
    380a:	58 5f       	subi	r21, 0xF8	; 248
    380c:	f3 cf       	rjmp	.-26     	; 0x37f4 <__addsf3x+0x34>
    380e:	46 95       	lsr	r20
    3810:	37 95       	ror	r19
    3812:	27 95       	ror	r18
    3814:	a7 95       	ror	r26
    3816:	f0 40       	sbci	r31, 0x00	; 0
    3818:	53 95       	inc	r21
    381a:	c9 f7       	brne	.-14     	; 0x380e <__addsf3x+0x4e>
    381c:	7e f4       	brtc	.+30     	; 0x383c <__addsf3x+0x7c>
    381e:	1f 16       	cp	r1, r31
    3820:	ba 0b       	sbc	r27, r26
    3822:	62 0b       	sbc	r22, r18
    3824:	73 0b       	sbc	r23, r19
    3826:	84 0b       	sbc	r24, r20
    3828:	ba f0       	brmi	.+46     	; 0x3858 <__addsf3x+0x98>
    382a:	91 50       	subi	r25, 0x01	; 1
    382c:	a1 f0       	breq	.+40     	; 0x3856 <__addsf3x+0x96>
    382e:	ff 0f       	add	r31, r31
    3830:	bb 1f       	adc	r27, r27
    3832:	66 1f       	adc	r22, r22
    3834:	77 1f       	adc	r23, r23
    3836:	88 1f       	adc	r24, r24
    3838:	c2 f7       	brpl	.-16     	; 0x382a <__addsf3x+0x6a>
    383a:	0e c0       	rjmp	.+28     	; 0x3858 <__addsf3x+0x98>
    383c:	ba 0f       	add	r27, r26
    383e:	62 1f       	adc	r22, r18
    3840:	73 1f       	adc	r23, r19
    3842:	84 1f       	adc	r24, r20
    3844:	48 f4       	brcc	.+18     	; 0x3858 <__addsf3x+0x98>
    3846:	87 95       	ror	r24
    3848:	77 95       	ror	r23
    384a:	67 95       	ror	r22
    384c:	b7 95       	ror	r27
    384e:	f7 95       	ror	r31
    3850:	9e 3f       	cpi	r25, 0xFE	; 254
    3852:	08 f0       	brcs	.+2      	; 0x3856 <__addsf3x+0x96>
    3854:	b3 cf       	rjmp	.-154    	; 0x37bc <__addsf3+0x1e>
    3856:	93 95       	inc	r25
    3858:	88 0f       	add	r24, r24
    385a:	08 f0       	brcs	.+2      	; 0x385e <__addsf3x+0x9e>
    385c:	99 27       	eor	r25, r25
    385e:	ee 0f       	add	r30, r30
    3860:	97 95       	ror	r25
    3862:	87 95       	ror	r24
    3864:	08 95       	ret

00003866 <asin>:
    3866:	9f 93       	push	r25
    3868:	9f 77       	andi	r25, 0x7F	; 127
    386a:	ee e3       	ldi	r30, 0x3E	; 62
    386c:	89 37       	cpi	r24, 0x79	; 121
    386e:	9e 07       	cpc	r25, r30
    3870:	20 f4       	brcc	.+8      	; 0x387a <asin+0x14>
    3872:	e4 ee       	ldi	r30, 0xE4	; 228
    3874:	f0 e0       	ldi	r31, 0x00	; 0
    3876:	b5 d1       	rcall	.+874    	; 0x3be2 <__fp_powsodd>
    3878:	09 c0       	rjmp	.+18     	; 0x388c <asin+0x26>
    387a:	46 d1       	rcall	.+652    	; 0x3b08 <__fp_arccos>
    387c:	90 58       	subi	r25, 0x80	; 128
    387e:	a2 ea       	ldi	r26, 0xA2	; 162
    3880:	2a ed       	ldi	r18, 0xDA	; 218
    3882:	3f e0       	ldi	r19, 0x0F	; 15
    3884:	49 ec       	ldi	r20, 0xC9	; 201
    3886:	5f e3       	ldi	r21, 0x3F	; 63
    3888:	9b df       	rcall	.-202    	; 0x37c0 <__addsf3x>
    388a:	f2 d1       	rcall	.+996    	; 0x3c70 <__fp_round>
    388c:	0f 90       	pop	r0
    388e:	07 fc       	sbrc	r0, 7
    3890:	90 58       	subi	r25, 0x80	; 128
    3892:	08 95       	ret
    3894:	b7 d1       	rcall	.+878    	; 0x3c04 <__fp_pscA>
    3896:	58 f0       	brcs	.+22     	; 0x38ae <asin+0x48>
    3898:	80 e8       	ldi	r24, 0x80	; 128
    389a:	91 e0       	ldi	r25, 0x01	; 1
    389c:	09 f4       	brne	.+2      	; 0x38a0 <asin+0x3a>
    389e:	9e ef       	ldi	r25, 0xFE	; 254
    38a0:	b8 d1       	rcall	.+880    	; 0x3c12 <__fp_pscB>
    38a2:	28 f0       	brcs	.+10     	; 0x38ae <asin+0x48>
    38a4:	40 e8       	ldi	r20, 0x80	; 128
    38a6:	51 e0       	ldi	r21, 0x01	; 1
    38a8:	59 f4       	brne	.+22     	; 0x38c0 <atan2+0xe>
    38aa:	5e ef       	ldi	r21, 0xFE	; 254
    38ac:	09 c0       	rjmp	.+18     	; 0x38c0 <atan2+0xe>
    38ae:	71 c1       	rjmp	.+738    	; 0x3b92 <__fp_nan>
    38b0:	23 c2       	rjmp	.+1094   	; 0x3cf8 <__fp_zero>

000038b2 <atan2>:
    38b2:	e9 2f       	mov	r30, r25
    38b4:	e0 78       	andi	r30, 0x80	; 128
    38b6:	fe d1       	rcall	.+1020   	; 0x3cb4 <__fp_split3>
    38b8:	68 f3       	brcs	.-38     	; 0x3894 <asin+0x2e>
    38ba:	09 2e       	mov	r0, r25
    38bc:	05 2a       	or	r0, r21
    38be:	c1 f3       	breq	.-16     	; 0x38b0 <asin+0x4a>
    38c0:	26 17       	cp	r18, r22
    38c2:	37 07       	cpc	r19, r23
    38c4:	48 07       	cpc	r20, r24
    38c6:	59 07       	cpc	r21, r25
    38c8:	38 f0       	brcs	.+14     	; 0x38d8 <atan2+0x26>
    38ca:	0e 2e       	mov	r0, r30
    38cc:	07 f8       	bld	r0, 7
    38ce:	e0 25       	eor	r30, r0
    38d0:	69 f0       	breq	.+26     	; 0x38ec <atan2+0x3a>
    38d2:	e0 25       	eor	r30, r0
    38d4:	e0 64       	ori	r30, 0x40	; 64
    38d6:	0a c0       	rjmp	.+20     	; 0x38ec <atan2+0x3a>
    38d8:	ef 63       	ori	r30, 0x3F	; 63
    38da:	07 f8       	bld	r0, 7
    38dc:	00 94       	com	r0
    38de:	07 fa       	bst	r0, 7
    38e0:	db 01       	movw	r26, r22
    38e2:	b9 01       	movw	r22, r18
    38e4:	9d 01       	movw	r18, r26
    38e6:	dc 01       	movw	r26, r24
    38e8:	ca 01       	movw	r24, r20
    38ea:	ad 01       	movw	r20, r26
    38ec:	ef 93       	push	r30
    38ee:	4a d0       	rcall	.+148    	; 0x3984 <__divsf3_pse>
    38f0:	bf d1       	rcall	.+894    	; 0x3c70 <__fp_round>
    38f2:	0a d0       	rcall	.+20     	; 0x3908 <atan>
    38f4:	5f 91       	pop	r21
    38f6:	55 23       	and	r21, r21
    38f8:	31 f0       	breq	.+12     	; 0x3906 <atan2+0x54>
    38fa:	2b ed       	ldi	r18, 0xDB	; 219
    38fc:	3f e0       	ldi	r19, 0x0F	; 15
    38fe:	49 e4       	ldi	r20, 0x49	; 73
    3900:	50 fd       	sbrc	r21, 0
    3902:	49 ec       	ldi	r20, 0xC9	; 201
    3904:	4c cf       	rjmp	.-360    	; 0x379e <__addsf3>
    3906:	08 95       	ret

00003908 <atan>:
    3908:	df 93       	push	r29
    390a:	dd 27       	eor	r29, r29
    390c:	b9 2f       	mov	r27, r25
    390e:	bf 77       	andi	r27, 0x7F	; 127
    3910:	40 e8       	ldi	r20, 0x80	; 128
    3912:	5f e3       	ldi	r21, 0x3F	; 63
    3914:	16 16       	cp	r1, r22
    3916:	17 06       	cpc	r1, r23
    3918:	48 07       	cpc	r20, r24
    391a:	5b 07       	cpc	r21, r27
    391c:	10 f4       	brcc	.+4      	; 0x3922 <atan+0x1a>
    391e:	d9 2f       	mov	r29, r25
    3920:	f6 d1       	rcall	.+1004   	; 0x3d0e <inverse>
    3922:	9f 93       	push	r25
    3924:	8f 93       	push	r24
    3926:	7f 93       	push	r23
    3928:	6f 93       	push	r22
    392a:	ef d2       	rcall	.+1502   	; 0x3f0a <square>
    392c:	e8 ef       	ldi	r30, 0xF8	; 248
    392e:	f0 e0       	ldi	r31, 0x00	; 0
    3930:	33 d1       	rcall	.+614    	; 0x3b98 <__fp_powser>
    3932:	9e d1       	rcall	.+828    	; 0x3c70 <__fp_round>
    3934:	2f 91       	pop	r18
    3936:	3f 91       	pop	r19
    3938:	4f 91       	pop	r20
    393a:	5f 91       	pop	r21
    393c:	fb d1       	rcall	.+1014   	; 0x3d34 <__mulsf3x>
    393e:	dd 23       	and	r29, r29
    3940:	49 f0       	breq	.+18     	; 0x3954 <atan+0x4c>
    3942:	90 58       	subi	r25, 0x80	; 128
    3944:	a2 ea       	ldi	r26, 0xA2	; 162
    3946:	2a ed       	ldi	r18, 0xDA	; 218
    3948:	3f e0       	ldi	r19, 0x0F	; 15
    394a:	49 ec       	ldi	r20, 0xC9	; 201
    394c:	5f e3       	ldi	r21, 0x3F	; 63
    394e:	d0 78       	andi	r29, 0x80	; 128
    3950:	5d 27       	eor	r21, r29
    3952:	36 df       	rcall	.-404    	; 0x37c0 <__addsf3x>
    3954:	df 91       	pop	r29
    3956:	8c c1       	rjmp	.+792    	; 0x3c70 <__fp_round>

00003958 <__cmpsf2>:
    3958:	f2 d0       	rcall	.+484    	; 0x3b3e <__fp_cmp>
    395a:	08 f4       	brcc	.+2      	; 0x395e <__cmpsf2+0x6>
    395c:	81 e0       	ldi	r24, 0x01	; 1
    395e:	08 95       	ret

00003960 <cos>:
    3960:	60 d1       	rcall	.+704    	; 0x3c22 <__fp_rempio2>
    3962:	e3 95       	inc	r30
    3964:	96 c1       	rjmp	.+812    	; 0x3c92 <__fp_sinus>

00003966 <__divsf3>:
    3966:	0c d0       	rcall	.+24     	; 0x3980 <__divsf3x>
    3968:	83 c1       	rjmp	.+774    	; 0x3c70 <__fp_round>
    396a:	53 d1       	rcall	.+678    	; 0x3c12 <__fp_pscB>
    396c:	40 f0       	brcs	.+16     	; 0x397e <__divsf3+0x18>
    396e:	4a d1       	rcall	.+660    	; 0x3c04 <__fp_pscA>
    3970:	30 f0       	brcs	.+12     	; 0x397e <__divsf3+0x18>
    3972:	21 f4       	brne	.+8      	; 0x397c <__divsf3+0x16>
    3974:	5f 3f       	cpi	r21, 0xFF	; 255
    3976:	19 f0       	breq	.+6      	; 0x397e <__divsf3+0x18>
    3978:	06 c1       	rjmp	.+524    	; 0x3b86 <__fp_inf>
    397a:	51 11       	cpse	r21, r1
    397c:	be c1       	rjmp	.+892    	; 0x3cfa <__fp_szero>
    397e:	09 c1       	rjmp	.+530    	; 0x3b92 <__fp_nan>

00003980 <__divsf3x>:
    3980:	99 d1       	rcall	.+818    	; 0x3cb4 <__fp_split3>
    3982:	98 f3       	brcs	.-26     	; 0x396a <__divsf3+0x4>

00003984 <__divsf3_pse>:
    3984:	99 23       	and	r25, r25
    3986:	c9 f3       	breq	.-14     	; 0x397a <__divsf3+0x14>
    3988:	55 23       	and	r21, r21
    398a:	b1 f3       	breq	.-20     	; 0x3978 <__divsf3+0x12>
    398c:	95 1b       	sub	r25, r21
    398e:	55 0b       	sbc	r21, r21
    3990:	bb 27       	eor	r27, r27
    3992:	aa 27       	eor	r26, r26
    3994:	62 17       	cp	r22, r18
    3996:	73 07       	cpc	r23, r19
    3998:	84 07       	cpc	r24, r20
    399a:	38 f0       	brcs	.+14     	; 0x39aa <__divsf3_pse+0x26>
    399c:	9f 5f       	subi	r25, 0xFF	; 255
    399e:	5f 4f       	sbci	r21, 0xFF	; 255
    39a0:	22 0f       	add	r18, r18
    39a2:	33 1f       	adc	r19, r19
    39a4:	44 1f       	adc	r20, r20
    39a6:	aa 1f       	adc	r26, r26
    39a8:	a9 f3       	breq	.-22     	; 0x3994 <__divsf3_pse+0x10>
    39aa:	33 d0       	rcall	.+102    	; 0x3a12 <__divsf3_pse+0x8e>
    39ac:	0e 2e       	mov	r0, r30
    39ae:	3a f0       	brmi	.+14     	; 0x39be <__divsf3_pse+0x3a>
    39b0:	e0 e8       	ldi	r30, 0x80	; 128
    39b2:	30 d0       	rcall	.+96     	; 0x3a14 <__divsf3_pse+0x90>
    39b4:	91 50       	subi	r25, 0x01	; 1
    39b6:	50 40       	sbci	r21, 0x00	; 0
    39b8:	e6 95       	lsr	r30
    39ba:	00 1c       	adc	r0, r0
    39bc:	ca f7       	brpl	.-14     	; 0x39b0 <__divsf3_pse+0x2c>
    39be:	29 d0       	rcall	.+82     	; 0x3a12 <__divsf3_pse+0x8e>
    39c0:	fe 2f       	mov	r31, r30
    39c2:	27 d0       	rcall	.+78     	; 0x3a12 <__divsf3_pse+0x8e>
    39c4:	66 0f       	add	r22, r22
    39c6:	77 1f       	adc	r23, r23
    39c8:	88 1f       	adc	r24, r24
    39ca:	bb 1f       	adc	r27, r27
    39cc:	26 17       	cp	r18, r22
    39ce:	37 07       	cpc	r19, r23
    39d0:	48 07       	cpc	r20, r24
    39d2:	ab 07       	cpc	r26, r27
    39d4:	b0 e8       	ldi	r27, 0x80	; 128
    39d6:	09 f0       	breq	.+2      	; 0x39da <__divsf3_pse+0x56>
    39d8:	bb 0b       	sbc	r27, r27
    39da:	80 2d       	mov	r24, r0
    39dc:	bf 01       	movw	r22, r30
    39de:	ff 27       	eor	r31, r31
    39e0:	93 58       	subi	r25, 0x83	; 131
    39e2:	5f 4f       	sbci	r21, 0xFF	; 255
    39e4:	2a f0       	brmi	.+10     	; 0x39f0 <__divsf3_pse+0x6c>
    39e6:	9e 3f       	cpi	r25, 0xFE	; 254
    39e8:	51 05       	cpc	r21, r1
    39ea:	68 f0       	brcs	.+26     	; 0x3a06 <__divsf3_pse+0x82>
    39ec:	cc c0       	rjmp	.+408    	; 0x3b86 <__fp_inf>
    39ee:	85 c1       	rjmp	.+778    	; 0x3cfa <__fp_szero>
    39f0:	5f 3f       	cpi	r21, 0xFF	; 255
    39f2:	ec f3       	brlt	.-6      	; 0x39ee <__divsf3_pse+0x6a>
    39f4:	98 3e       	cpi	r25, 0xE8	; 232
    39f6:	dc f3       	brlt	.-10     	; 0x39ee <__divsf3_pse+0x6a>
    39f8:	86 95       	lsr	r24
    39fa:	77 95       	ror	r23
    39fc:	67 95       	ror	r22
    39fe:	b7 95       	ror	r27
    3a00:	f7 95       	ror	r31
    3a02:	9f 5f       	subi	r25, 0xFF	; 255
    3a04:	c9 f7       	brne	.-14     	; 0x39f8 <__divsf3_pse+0x74>
    3a06:	88 0f       	add	r24, r24
    3a08:	91 1d       	adc	r25, r1
    3a0a:	96 95       	lsr	r25
    3a0c:	87 95       	ror	r24
    3a0e:	97 f9       	bld	r25, 7
    3a10:	08 95       	ret
    3a12:	e1 e0       	ldi	r30, 0x01	; 1
    3a14:	66 0f       	add	r22, r22
    3a16:	77 1f       	adc	r23, r23
    3a18:	88 1f       	adc	r24, r24
    3a1a:	bb 1f       	adc	r27, r27
    3a1c:	62 17       	cp	r22, r18
    3a1e:	73 07       	cpc	r23, r19
    3a20:	84 07       	cpc	r24, r20
    3a22:	ba 07       	cpc	r27, r26
    3a24:	20 f0       	brcs	.+8      	; 0x3a2e <__divsf3_pse+0xaa>
    3a26:	62 1b       	sub	r22, r18
    3a28:	73 0b       	sbc	r23, r19
    3a2a:	84 0b       	sbc	r24, r20
    3a2c:	ba 0b       	sbc	r27, r26
    3a2e:	ee 1f       	adc	r30, r30
    3a30:	88 f7       	brcc	.-30     	; 0x3a14 <__divsf3_pse+0x90>
    3a32:	e0 95       	com	r30
    3a34:	08 95       	ret

00003a36 <__fixunssfsi>:
    3a36:	46 d1       	rcall	.+652    	; 0x3cc4 <__fp_splitA>
    3a38:	88 f0       	brcs	.+34     	; 0x3a5c <__fixunssfsi+0x26>
    3a3a:	9f 57       	subi	r25, 0x7F	; 127
    3a3c:	90 f0       	brcs	.+36     	; 0x3a62 <__fixunssfsi+0x2c>
    3a3e:	b9 2f       	mov	r27, r25
    3a40:	99 27       	eor	r25, r25
    3a42:	b7 51       	subi	r27, 0x17	; 23
    3a44:	a0 f0       	brcs	.+40     	; 0x3a6e <__fixunssfsi+0x38>
    3a46:	d1 f0       	breq	.+52     	; 0x3a7c <__fixunssfsi+0x46>
    3a48:	66 0f       	add	r22, r22
    3a4a:	77 1f       	adc	r23, r23
    3a4c:	88 1f       	adc	r24, r24
    3a4e:	99 1f       	adc	r25, r25
    3a50:	1a f0       	brmi	.+6      	; 0x3a58 <__fixunssfsi+0x22>
    3a52:	ba 95       	dec	r27
    3a54:	c9 f7       	brne	.-14     	; 0x3a48 <__fixunssfsi+0x12>
    3a56:	12 c0       	rjmp	.+36     	; 0x3a7c <__fixunssfsi+0x46>
    3a58:	b1 30       	cpi	r27, 0x01	; 1
    3a5a:	81 f0       	breq	.+32     	; 0x3a7c <__fixunssfsi+0x46>
    3a5c:	4d d1       	rcall	.+666    	; 0x3cf8 <__fp_zero>
    3a5e:	b1 e0       	ldi	r27, 0x01	; 1
    3a60:	08 95       	ret
    3a62:	4a c1       	rjmp	.+660    	; 0x3cf8 <__fp_zero>
    3a64:	67 2f       	mov	r22, r23
    3a66:	78 2f       	mov	r23, r24
    3a68:	88 27       	eor	r24, r24
    3a6a:	b8 5f       	subi	r27, 0xF8	; 248
    3a6c:	39 f0       	breq	.+14     	; 0x3a7c <__fixunssfsi+0x46>
    3a6e:	b9 3f       	cpi	r27, 0xF9	; 249
    3a70:	cc f3       	brlt	.-14     	; 0x3a64 <__fixunssfsi+0x2e>
    3a72:	86 95       	lsr	r24
    3a74:	77 95       	ror	r23
    3a76:	67 95       	ror	r22
    3a78:	b3 95       	inc	r27
    3a7a:	d9 f7       	brne	.-10     	; 0x3a72 <__fixunssfsi+0x3c>
    3a7c:	3e f4       	brtc	.+14     	; 0x3a8c <__fixunssfsi+0x56>
    3a7e:	90 95       	com	r25
    3a80:	80 95       	com	r24
    3a82:	70 95       	com	r23
    3a84:	61 95       	neg	r22
    3a86:	7f 4f       	sbci	r23, 0xFF	; 255
    3a88:	8f 4f       	sbci	r24, 0xFF	; 255
    3a8a:	9f 4f       	sbci	r25, 0xFF	; 255
    3a8c:	08 95       	ret

00003a8e <__floatunsisf>:
    3a8e:	e8 94       	clt
    3a90:	09 c0       	rjmp	.+18     	; 0x3aa4 <__floatsisf+0x12>

00003a92 <__floatsisf>:
    3a92:	97 fb       	bst	r25, 7
    3a94:	3e f4       	brtc	.+14     	; 0x3aa4 <__floatsisf+0x12>
    3a96:	90 95       	com	r25
    3a98:	80 95       	com	r24
    3a9a:	70 95       	com	r23
    3a9c:	61 95       	neg	r22
    3a9e:	7f 4f       	sbci	r23, 0xFF	; 255
    3aa0:	8f 4f       	sbci	r24, 0xFF	; 255
    3aa2:	9f 4f       	sbci	r25, 0xFF	; 255
    3aa4:	99 23       	and	r25, r25
    3aa6:	a9 f0       	breq	.+42     	; 0x3ad2 <__floatsisf+0x40>
    3aa8:	f9 2f       	mov	r31, r25
    3aaa:	96 e9       	ldi	r25, 0x96	; 150
    3aac:	bb 27       	eor	r27, r27
    3aae:	93 95       	inc	r25
    3ab0:	f6 95       	lsr	r31
    3ab2:	87 95       	ror	r24
    3ab4:	77 95       	ror	r23
    3ab6:	67 95       	ror	r22
    3ab8:	b7 95       	ror	r27
    3aba:	f1 11       	cpse	r31, r1
    3abc:	f8 cf       	rjmp	.-16     	; 0x3aae <__floatsisf+0x1c>
    3abe:	fa f4       	brpl	.+62     	; 0x3afe <__floatsisf+0x6c>
    3ac0:	bb 0f       	add	r27, r27
    3ac2:	11 f4       	brne	.+4      	; 0x3ac8 <__floatsisf+0x36>
    3ac4:	60 ff       	sbrs	r22, 0
    3ac6:	1b c0       	rjmp	.+54     	; 0x3afe <__floatsisf+0x6c>
    3ac8:	6f 5f       	subi	r22, 0xFF	; 255
    3aca:	7f 4f       	sbci	r23, 0xFF	; 255
    3acc:	8f 4f       	sbci	r24, 0xFF	; 255
    3ace:	9f 4f       	sbci	r25, 0xFF	; 255
    3ad0:	16 c0       	rjmp	.+44     	; 0x3afe <__floatsisf+0x6c>
    3ad2:	88 23       	and	r24, r24
    3ad4:	11 f0       	breq	.+4      	; 0x3ada <__floatsisf+0x48>
    3ad6:	96 e9       	ldi	r25, 0x96	; 150
    3ad8:	11 c0       	rjmp	.+34     	; 0x3afc <__floatsisf+0x6a>
    3ada:	77 23       	and	r23, r23
    3adc:	21 f0       	breq	.+8      	; 0x3ae6 <__floatsisf+0x54>
    3ade:	9e e8       	ldi	r25, 0x8E	; 142
    3ae0:	87 2f       	mov	r24, r23
    3ae2:	76 2f       	mov	r23, r22
    3ae4:	05 c0       	rjmp	.+10     	; 0x3af0 <__floatsisf+0x5e>
    3ae6:	66 23       	and	r22, r22
    3ae8:	71 f0       	breq	.+28     	; 0x3b06 <__floatsisf+0x74>
    3aea:	96 e8       	ldi	r25, 0x86	; 134
    3aec:	86 2f       	mov	r24, r22
    3aee:	70 e0       	ldi	r23, 0x00	; 0
    3af0:	60 e0       	ldi	r22, 0x00	; 0
    3af2:	2a f0       	brmi	.+10     	; 0x3afe <__floatsisf+0x6c>
    3af4:	9a 95       	dec	r25
    3af6:	66 0f       	add	r22, r22
    3af8:	77 1f       	adc	r23, r23
    3afa:	88 1f       	adc	r24, r24
    3afc:	da f7       	brpl	.-10     	; 0x3af4 <__floatsisf+0x62>
    3afe:	88 0f       	add	r24, r24
    3b00:	96 95       	lsr	r25
    3b02:	87 95       	ror	r24
    3b04:	97 f9       	bld	r25, 7
    3b06:	08 95       	ret

00003b08 <__fp_arccos>:
    3b08:	df 93       	push	r29
    3b0a:	cf 93       	push	r28
    3b0c:	1f 93       	push	r17
    3b0e:	0f 93       	push	r16
    3b10:	8b 01       	movw	r16, r22
    3b12:	ec 01       	movw	r28, r24
    3b14:	e5 e2       	ldi	r30, 0x25	; 37
    3b16:	f1 e0       	ldi	r31, 0x01	; 1
    3b18:	3f d0       	rcall	.+126    	; 0x3b98 <__fp_powser>
    3b1a:	aa d0       	rcall	.+340    	; 0x3c70 <__fp_round>
    3b1c:	98 01       	movw	r18, r16
    3b1e:	ae 01       	movw	r20, r28
    3b20:	8b 01       	movw	r16, r22
    3b22:	ec 01       	movw	r28, r24
    3b24:	60 e0       	ldi	r22, 0x00	; 0
    3b26:	70 e0       	ldi	r23, 0x00	; 0
    3b28:	80 e8       	ldi	r24, 0x80	; 128
    3b2a:	9f e3       	ldi	r25, 0x3F	; 63
    3b2c:	37 de       	rcall	.-914    	; 0x379c <__subsf3>
    3b2e:	af d1       	rcall	.+862    	; 0x3e8e <sqrt>
    3b30:	98 01       	movw	r18, r16
    3b32:	ae 01       	movw	r20, r28
    3b34:	0f 91       	pop	r16
    3b36:	1f 91       	pop	r17
    3b38:	cf 91       	pop	r28
    3b3a:	df 91       	pop	r29
    3b3c:	fb c0       	rjmp	.+502    	; 0x3d34 <__mulsf3x>

00003b3e <__fp_cmp>:
    3b3e:	99 0f       	add	r25, r25
    3b40:	00 08       	sbc	r0, r0
    3b42:	55 0f       	add	r21, r21
    3b44:	aa 0b       	sbc	r26, r26
    3b46:	e0 e8       	ldi	r30, 0x80	; 128
    3b48:	fe ef       	ldi	r31, 0xFE	; 254
    3b4a:	16 16       	cp	r1, r22
    3b4c:	17 06       	cpc	r1, r23
    3b4e:	e8 07       	cpc	r30, r24
    3b50:	f9 07       	cpc	r31, r25
    3b52:	c0 f0       	brcs	.+48     	; 0x3b84 <__fp_cmp+0x46>
    3b54:	12 16       	cp	r1, r18
    3b56:	13 06       	cpc	r1, r19
    3b58:	e4 07       	cpc	r30, r20
    3b5a:	f5 07       	cpc	r31, r21
    3b5c:	98 f0       	brcs	.+38     	; 0x3b84 <__fp_cmp+0x46>
    3b5e:	62 1b       	sub	r22, r18
    3b60:	73 0b       	sbc	r23, r19
    3b62:	84 0b       	sbc	r24, r20
    3b64:	95 0b       	sbc	r25, r21
    3b66:	39 f4       	brne	.+14     	; 0x3b76 <__fp_cmp+0x38>
    3b68:	0a 26       	eor	r0, r26
    3b6a:	61 f0       	breq	.+24     	; 0x3b84 <__fp_cmp+0x46>
    3b6c:	23 2b       	or	r18, r19
    3b6e:	24 2b       	or	r18, r20
    3b70:	25 2b       	or	r18, r21
    3b72:	21 f4       	brne	.+8      	; 0x3b7c <__fp_cmp+0x3e>
    3b74:	08 95       	ret
    3b76:	0a 26       	eor	r0, r26
    3b78:	09 f4       	brne	.+2      	; 0x3b7c <__fp_cmp+0x3e>
    3b7a:	a1 40       	sbci	r26, 0x01	; 1
    3b7c:	a6 95       	lsr	r26
    3b7e:	8f ef       	ldi	r24, 0xFF	; 255
    3b80:	81 1d       	adc	r24, r1
    3b82:	81 1d       	adc	r24, r1
    3b84:	08 95       	ret

00003b86 <__fp_inf>:
    3b86:	97 f9       	bld	r25, 7
    3b88:	9f 67       	ori	r25, 0x7F	; 127
    3b8a:	80 e8       	ldi	r24, 0x80	; 128
    3b8c:	70 e0       	ldi	r23, 0x00	; 0
    3b8e:	60 e0       	ldi	r22, 0x00	; 0
    3b90:	08 95       	ret

00003b92 <__fp_nan>:
    3b92:	9f ef       	ldi	r25, 0xFF	; 255
    3b94:	80 ec       	ldi	r24, 0xC0	; 192
    3b96:	08 95       	ret

00003b98 <__fp_powser>:
    3b98:	df 93       	push	r29
    3b9a:	cf 93       	push	r28
    3b9c:	1f 93       	push	r17
    3b9e:	0f 93       	push	r16
    3ba0:	ff 92       	push	r15
    3ba2:	ef 92       	push	r14
    3ba4:	df 92       	push	r13
    3ba6:	7b 01       	movw	r14, r22
    3ba8:	8c 01       	movw	r16, r24
    3baa:	68 94       	set
    3bac:	05 c0       	rjmp	.+10     	; 0x3bb8 <__fp_powser+0x20>
    3bae:	da 2e       	mov	r13, r26
    3bb0:	ef 01       	movw	r28, r30
    3bb2:	c0 d0       	rcall	.+384    	; 0x3d34 <__mulsf3x>
    3bb4:	fe 01       	movw	r30, r28
    3bb6:	e8 94       	clt
    3bb8:	a5 91       	lpm	r26, Z+
    3bba:	25 91       	lpm	r18, Z+
    3bbc:	35 91       	lpm	r19, Z+
    3bbe:	45 91       	lpm	r20, Z+
    3bc0:	55 91       	lpm	r21, Z+
    3bc2:	ae f3       	brts	.-22     	; 0x3bae <__fp_powser+0x16>
    3bc4:	ef 01       	movw	r28, r30
    3bc6:	fc dd       	rcall	.-1032   	; 0x37c0 <__addsf3x>
    3bc8:	fe 01       	movw	r30, r28
    3bca:	97 01       	movw	r18, r14
    3bcc:	a8 01       	movw	r20, r16
    3bce:	da 94       	dec	r13
    3bd0:	79 f7       	brne	.-34     	; 0x3bb0 <__fp_powser+0x18>
    3bd2:	df 90       	pop	r13
    3bd4:	ef 90       	pop	r14
    3bd6:	ff 90       	pop	r15
    3bd8:	0f 91       	pop	r16
    3bda:	1f 91       	pop	r17
    3bdc:	cf 91       	pop	r28
    3bde:	df 91       	pop	r29
    3be0:	08 95       	ret

00003be2 <__fp_powsodd>:
    3be2:	9f 93       	push	r25
    3be4:	8f 93       	push	r24
    3be6:	7f 93       	push	r23
    3be8:	6f 93       	push	r22
    3bea:	ff 93       	push	r31
    3bec:	ef 93       	push	r30
    3bee:	9b 01       	movw	r18, r22
    3bf0:	ac 01       	movw	r20, r24
    3bf2:	94 d0       	rcall	.+296    	; 0x3d1c <__mulsf3>
    3bf4:	ef 91       	pop	r30
    3bf6:	ff 91       	pop	r31
    3bf8:	cf df       	rcall	.-98     	; 0x3b98 <__fp_powser>
    3bfa:	2f 91       	pop	r18
    3bfc:	3f 91       	pop	r19
    3bfe:	4f 91       	pop	r20
    3c00:	5f 91       	pop	r21
    3c02:	8c c0       	rjmp	.+280    	; 0x3d1c <__mulsf3>

00003c04 <__fp_pscA>:
    3c04:	00 24       	eor	r0, r0
    3c06:	0a 94       	dec	r0
    3c08:	16 16       	cp	r1, r22
    3c0a:	17 06       	cpc	r1, r23
    3c0c:	18 06       	cpc	r1, r24
    3c0e:	09 06       	cpc	r0, r25
    3c10:	08 95       	ret

00003c12 <__fp_pscB>:
    3c12:	00 24       	eor	r0, r0
    3c14:	0a 94       	dec	r0
    3c16:	12 16       	cp	r1, r18
    3c18:	13 06       	cpc	r1, r19
    3c1a:	14 06       	cpc	r1, r20
    3c1c:	05 06       	cpc	r0, r21
    3c1e:	08 95       	ret
    3c20:	b8 cf       	rjmp	.-144    	; 0x3b92 <__fp_nan>

00003c22 <__fp_rempio2>:
    3c22:	50 d0       	rcall	.+160    	; 0x3cc4 <__fp_splitA>
    3c24:	e8 f3       	brcs	.-6      	; 0x3c20 <__fp_pscB+0xe>
    3c26:	e8 94       	clt
    3c28:	e0 e0       	ldi	r30, 0x00	; 0
    3c2a:	bb 27       	eor	r27, r27
    3c2c:	9f 57       	subi	r25, 0x7F	; 127
    3c2e:	f0 f0       	brcs	.+60     	; 0x3c6c <__fp_rempio2+0x4a>
    3c30:	2a ed       	ldi	r18, 0xDA	; 218
    3c32:	3f e0       	ldi	r19, 0x0F	; 15
    3c34:	49 ec       	ldi	r20, 0xC9	; 201
    3c36:	06 c0       	rjmp	.+12     	; 0x3c44 <__fp_rempio2+0x22>
    3c38:	ee 0f       	add	r30, r30
    3c3a:	bb 0f       	add	r27, r27
    3c3c:	66 1f       	adc	r22, r22
    3c3e:	77 1f       	adc	r23, r23
    3c40:	88 1f       	adc	r24, r24
    3c42:	28 f0       	brcs	.+10     	; 0x3c4e <__fp_rempio2+0x2c>
    3c44:	b2 3a       	cpi	r27, 0xA2	; 162
    3c46:	62 07       	cpc	r22, r18
    3c48:	73 07       	cpc	r23, r19
    3c4a:	84 07       	cpc	r24, r20
    3c4c:	28 f0       	brcs	.+10     	; 0x3c58 <__fp_rempio2+0x36>
    3c4e:	b2 5a       	subi	r27, 0xA2	; 162
    3c50:	62 0b       	sbc	r22, r18
    3c52:	73 0b       	sbc	r23, r19
    3c54:	84 0b       	sbc	r24, r20
    3c56:	e3 95       	inc	r30
    3c58:	9a 95       	dec	r25
    3c5a:	72 f7       	brpl	.-36     	; 0x3c38 <__fp_rempio2+0x16>
    3c5c:	80 38       	cpi	r24, 0x80	; 128
    3c5e:	30 f4       	brcc	.+12     	; 0x3c6c <__fp_rempio2+0x4a>
    3c60:	9a 95       	dec	r25
    3c62:	bb 0f       	add	r27, r27
    3c64:	66 1f       	adc	r22, r22
    3c66:	77 1f       	adc	r23, r23
    3c68:	88 1f       	adc	r24, r24
    3c6a:	d2 f7       	brpl	.-12     	; 0x3c60 <__fp_rempio2+0x3e>
    3c6c:	90 48       	sbci	r25, 0x80	; 128
    3c6e:	83 c1       	rjmp	.+774    	; 0x3f76 <__fp_mpack_finite>

00003c70 <__fp_round>:
    3c70:	09 2e       	mov	r0, r25
    3c72:	03 94       	inc	r0
    3c74:	00 0c       	add	r0, r0
    3c76:	11 f4       	brne	.+4      	; 0x3c7c <__fp_round+0xc>
    3c78:	88 23       	and	r24, r24
    3c7a:	52 f0       	brmi	.+20     	; 0x3c90 <__fp_round+0x20>
    3c7c:	bb 0f       	add	r27, r27
    3c7e:	40 f4       	brcc	.+16     	; 0x3c90 <__fp_round+0x20>
    3c80:	bf 2b       	or	r27, r31
    3c82:	11 f4       	brne	.+4      	; 0x3c88 <__fp_round+0x18>
    3c84:	60 ff       	sbrs	r22, 0
    3c86:	04 c0       	rjmp	.+8      	; 0x3c90 <__fp_round+0x20>
    3c88:	6f 5f       	subi	r22, 0xFF	; 255
    3c8a:	7f 4f       	sbci	r23, 0xFF	; 255
    3c8c:	8f 4f       	sbci	r24, 0xFF	; 255
    3c8e:	9f 4f       	sbci	r25, 0xFF	; 255
    3c90:	08 95       	ret

00003c92 <__fp_sinus>:
    3c92:	ef 93       	push	r30
    3c94:	e0 ff       	sbrs	r30, 0
    3c96:	06 c0       	rjmp	.+12     	; 0x3ca4 <__fp_sinus+0x12>
    3c98:	a2 ea       	ldi	r26, 0xA2	; 162
    3c9a:	2a ed       	ldi	r18, 0xDA	; 218
    3c9c:	3f e0       	ldi	r19, 0x0F	; 15
    3c9e:	49 ec       	ldi	r20, 0xC9	; 201
    3ca0:	5f eb       	ldi	r21, 0xBF	; 191
    3ca2:	8e dd       	rcall	.-1252   	; 0x37c0 <__addsf3x>
    3ca4:	e5 df       	rcall	.-54     	; 0x3c70 <__fp_round>
    3ca6:	0f 90       	pop	r0
    3ca8:	03 94       	inc	r0
    3caa:	01 fc       	sbrc	r0, 1
    3cac:	90 58       	subi	r25, 0x80	; 128
    3cae:	ed e4       	ldi	r30, 0x4D	; 77
    3cb0:	f1 e0       	ldi	r31, 0x01	; 1
    3cb2:	97 cf       	rjmp	.-210    	; 0x3be2 <__fp_powsodd>

00003cb4 <__fp_split3>:
    3cb4:	57 fd       	sbrc	r21, 7
    3cb6:	90 58       	subi	r25, 0x80	; 128
    3cb8:	44 0f       	add	r20, r20
    3cba:	55 1f       	adc	r21, r21
    3cbc:	59 f0       	breq	.+22     	; 0x3cd4 <__fp_splitA+0x10>
    3cbe:	5f 3f       	cpi	r21, 0xFF	; 255
    3cc0:	71 f0       	breq	.+28     	; 0x3cde <__fp_splitA+0x1a>
    3cc2:	47 95       	ror	r20

00003cc4 <__fp_splitA>:
    3cc4:	88 0f       	add	r24, r24
    3cc6:	97 fb       	bst	r25, 7
    3cc8:	99 1f       	adc	r25, r25
    3cca:	61 f0       	breq	.+24     	; 0x3ce4 <__fp_splitA+0x20>
    3ccc:	9f 3f       	cpi	r25, 0xFF	; 255
    3cce:	79 f0       	breq	.+30     	; 0x3cee <__fp_splitA+0x2a>
    3cd0:	87 95       	ror	r24
    3cd2:	08 95       	ret
    3cd4:	12 16       	cp	r1, r18
    3cd6:	13 06       	cpc	r1, r19
    3cd8:	14 06       	cpc	r1, r20
    3cda:	55 1f       	adc	r21, r21
    3cdc:	f2 cf       	rjmp	.-28     	; 0x3cc2 <__fp_split3+0xe>
    3cde:	46 95       	lsr	r20
    3ce0:	f1 df       	rcall	.-30     	; 0x3cc4 <__fp_splitA>
    3ce2:	08 c0       	rjmp	.+16     	; 0x3cf4 <__fp_splitA+0x30>
    3ce4:	16 16       	cp	r1, r22
    3ce6:	17 06       	cpc	r1, r23
    3ce8:	18 06       	cpc	r1, r24
    3cea:	99 1f       	adc	r25, r25
    3cec:	f1 cf       	rjmp	.-30     	; 0x3cd0 <__fp_splitA+0xc>
    3cee:	86 95       	lsr	r24
    3cf0:	71 05       	cpc	r23, r1
    3cf2:	61 05       	cpc	r22, r1
    3cf4:	08 94       	sec
    3cf6:	08 95       	ret

00003cf8 <__fp_zero>:
    3cf8:	e8 94       	clt

00003cfa <__fp_szero>:
    3cfa:	bb 27       	eor	r27, r27
    3cfc:	66 27       	eor	r22, r22
    3cfe:	77 27       	eor	r23, r23
    3d00:	cb 01       	movw	r24, r22
    3d02:	97 f9       	bld	r25, 7
    3d04:	08 95       	ret

00003d06 <__gesf2>:
    3d06:	1b df       	rcall	.-458    	; 0x3b3e <__fp_cmp>
    3d08:	08 f4       	brcc	.+2      	; 0x3d0c <__gesf2+0x6>
    3d0a:	8f ef       	ldi	r24, 0xFF	; 255
    3d0c:	08 95       	ret

00003d0e <inverse>:
    3d0e:	9b 01       	movw	r18, r22
    3d10:	ac 01       	movw	r20, r24
    3d12:	60 e0       	ldi	r22, 0x00	; 0
    3d14:	70 e0       	ldi	r23, 0x00	; 0
    3d16:	80 e8       	ldi	r24, 0x80	; 128
    3d18:	9f e3       	ldi	r25, 0x3F	; 63
    3d1a:	25 ce       	rjmp	.-950    	; 0x3966 <__divsf3>

00003d1c <__mulsf3>:
    3d1c:	0b d0       	rcall	.+22     	; 0x3d34 <__mulsf3x>
    3d1e:	a8 cf       	rjmp	.-176    	; 0x3c70 <__fp_round>
    3d20:	71 df       	rcall	.-286    	; 0x3c04 <__fp_pscA>
    3d22:	28 f0       	brcs	.+10     	; 0x3d2e <__mulsf3+0x12>
    3d24:	76 df       	rcall	.-276    	; 0x3c12 <__fp_pscB>
    3d26:	18 f0       	brcs	.+6      	; 0x3d2e <__mulsf3+0x12>
    3d28:	95 23       	and	r25, r21
    3d2a:	09 f0       	breq	.+2      	; 0x3d2e <__mulsf3+0x12>
    3d2c:	2c cf       	rjmp	.-424    	; 0x3b86 <__fp_inf>
    3d2e:	31 cf       	rjmp	.-414    	; 0x3b92 <__fp_nan>
    3d30:	11 24       	eor	r1, r1
    3d32:	e3 cf       	rjmp	.-58     	; 0x3cfa <__fp_szero>

00003d34 <__mulsf3x>:
    3d34:	bf df       	rcall	.-130    	; 0x3cb4 <__fp_split3>
    3d36:	a0 f3       	brcs	.-24     	; 0x3d20 <__mulsf3+0x4>

00003d38 <__mulsf3_pse>:
    3d38:	95 9f       	mul	r25, r21
    3d3a:	d1 f3       	breq	.-12     	; 0x3d30 <__mulsf3+0x14>
    3d3c:	95 0f       	add	r25, r21
    3d3e:	50 e0       	ldi	r21, 0x00	; 0
    3d40:	55 1f       	adc	r21, r21
    3d42:	62 9f       	mul	r22, r18
    3d44:	f0 01       	movw	r30, r0
    3d46:	72 9f       	mul	r23, r18
    3d48:	bb 27       	eor	r27, r27
    3d4a:	f0 0d       	add	r31, r0
    3d4c:	b1 1d       	adc	r27, r1
    3d4e:	63 9f       	mul	r22, r19
    3d50:	aa 27       	eor	r26, r26
    3d52:	f0 0d       	add	r31, r0
    3d54:	b1 1d       	adc	r27, r1
    3d56:	aa 1f       	adc	r26, r26
    3d58:	64 9f       	mul	r22, r20
    3d5a:	66 27       	eor	r22, r22
    3d5c:	b0 0d       	add	r27, r0
    3d5e:	a1 1d       	adc	r26, r1
    3d60:	66 1f       	adc	r22, r22
    3d62:	82 9f       	mul	r24, r18
    3d64:	22 27       	eor	r18, r18
    3d66:	b0 0d       	add	r27, r0
    3d68:	a1 1d       	adc	r26, r1
    3d6a:	62 1f       	adc	r22, r18
    3d6c:	73 9f       	mul	r23, r19
    3d6e:	b0 0d       	add	r27, r0
    3d70:	a1 1d       	adc	r26, r1
    3d72:	62 1f       	adc	r22, r18
    3d74:	83 9f       	mul	r24, r19
    3d76:	a0 0d       	add	r26, r0
    3d78:	61 1d       	adc	r22, r1
    3d7a:	22 1f       	adc	r18, r18
    3d7c:	74 9f       	mul	r23, r20
    3d7e:	33 27       	eor	r19, r19
    3d80:	a0 0d       	add	r26, r0
    3d82:	61 1d       	adc	r22, r1
    3d84:	23 1f       	adc	r18, r19
    3d86:	84 9f       	mul	r24, r20
    3d88:	60 0d       	add	r22, r0
    3d8a:	21 1d       	adc	r18, r1
    3d8c:	82 2f       	mov	r24, r18
    3d8e:	76 2f       	mov	r23, r22
    3d90:	6a 2f       	mov	r22, r26
    3d92:	11 24       	eor	r1, r1
    3d94:	9f 57       	subi	r25, 0x7F	; 127
    3d96:	50 40       	sbci	r21, 0x00	; 0
    3d98:	8a f0       	brmi	.+34     	; 0x3dbc <__mulsf3_pse+0x84>
    3d9a:	e1 f0       	breq	.+56     	; 0x3dd4 <__mulsf3_pse+0x9c>
    3d9c:	88 23       	and	r24, r24
    3d9e:	4a f0       	brmi	.+18     	; 0x3db2 <__mulsf3_pse+0x7a>
    3da0:	ee 0f       	add	r30, r30
    3da2:	ff 1f       	adc	r31, r31
    3da4:	bb 1f       	adc	r27, r27
    3da6:	66 1f       	adc	r22, r22
    3da8:	77 1f       	adc	r23, r23
    3daa:	88 1f       	adc	r24, r24
    3dac:	91 50       	subi	r25, 0x01	; 1
    3dae:	50 40       	sbci	r21, 0x00	; 0
    3db0:	a9 f7       	brne	.-22     	; 0x3d9c <__mulsf3_pse+0x64>
    3db2:	9e 3f       	cpi	r25, 0xFE	; 254
    3db4:	51 05       	cpc	r21, r1
    3db6:	70 f0       	brcs	.+28     	; 0x3dd4 <__mulsf3_pse+0x9c>
    3db8:	e6 ce       	rjmp	.-564    	; 0x3b86 <__fp_inf>
    3dba:	9f cf       	rjmp	.-194    	; 0x3cfa <__fp_szero>
    3dbc:	5f 3f       	cpi	r21, 0xFF	; 255
    3dbe:	ec f3       	brlt	.-6      	; 0x3dba <__mulsf3_pse+0x82>
    3dc0:	98 3e       	cpi	r25, 0xE8	; 232
    3dc2:	dc f3       	brlt	.-10     	; 0x3dba <__mulsf3_pse+0x82>
    3dc4:	86 95       	lsr	r24
    3dc6:	77 95       	ror	r23
    3dc8:	67 95       	ror	r22
    3dca:	b7 95       	ror	r27
    3dcc:	f7 95       	ror	r31
    3dce:	e7 95       	ror	r30
    3dd0:	9f 5f       	subi	r25, 0xFF	; 255
    3dd2:	c1 f7       	brne	.-16     	; 0x3dc4 <__mulsf3_pse+0x8c>
    3dd4:	fe 2b       	or	r31, r30
    3dd6:	88 0f       	add	r24, r24
    3dd8:	91 1d       	adc	r25, r1
    3dda:	96 95       	lsr	r25
    3ddc:	87 95       	ror	r24
    3dde:	97 f9       	bld	r25, 7
    3de0:	08 95       	ret

00003de2 <pow>:
    3de2:	fa 01       	movw	r30, r20
    3de4:	ee 0f       	add	r30, r30
    3de6:	ff 1f       	adc	r31, r31
    3de8:	30 96       	adiw	r30, 0x00	; 0
    3dea:	21 05       	cpc	r18, r1
    3dec:	31 05       	cpc	r19, r1
    3dee:	99 f1       	breq	.+102    	; 0x3e56 <pow+0x74>
    3df0:	61 15       	cp	r22, r1
    3df2:	71 05       	cpc	r23, r1
    3df4:	61 f4       	brne	.+24     	; 0x3e0e <pow+0x2c>
    3df6:	80 38       	cpi	r24, 0x80	; 128
    3df8:	bf e3       	ldi	r27, 0x3F	; 63
    3dfa:	9b 07       	cpc	r25, r27
    3dfc:	49 f1       	breq	.+82     	; 0x3e50 <pow+0x6e>
    3dfe:	68 94       	set
    3e00:	90 38       	cpi	r25, 0x80	; 128
    3e02:	81 05       	cpc	r24, r1
    3e04:	61 f0       	breq	.+24     	; 0x3e1e <pow+0x3c>
    3e06:	80 38       	cpi	r24, 0x80	; 128
    3e08:	bf ef       	ldi	r27, 0xFF	; 255
    3e0a:	9b 07       	cpc	r25, r27
    3e0c:	41 f0       	breq	.+16     	; 0x3e1e <pow+0x3c>
    3e0e:	99 23       	and	r25, r25
    3e10:	42 f5       	brpl	.+80     	; 0x3e62 <pow+0x80>
    3e12:	ff 3f       	cpi	r31, 0xFF	; 255
    3e14:	e1 05       	cpc	r30, r1
    3e16:	31 05       	cpc	r19, r1
    3e18:	21 05       	cpc	r18, r1
    3e1a:	11 f1       	breq	.+68     	; 0x3e60 <pow+0x7e>
    3e1c:	e8 94       	clt
    3e1e:	08 94       	sec
    3e20:	e7 95       	ror	r30
    3e22:	d9 01       	movw	r26, r18
    3e24:	aa 23       	and	r26, r26
    3e26:	29 f4       	brne	.+10     	; 0x3e32 <pow+0x50>
    3e28:	ab 2f       	mov	r26, r27
    3e2a:	be 2f       	mov	r27, r30
    3e2c:	f8 5f       	subi	r31, 0xF8	; 248
    3e2e:	d0 f3       	brcs	.-12     	; 0x3e24 <pow+0x42>
    3e30:	10 c0       	rjmp	.+32     	; 0x3e52 <pow+0x70>
    3e32:	ff 5f       	subi	r31, 0xFF	; 255
    3e34:	70 f4       	brcc	.+28     	; 0x3e52 <pow+0x70>
    3e36:	a6 95       	lsr	r26
    3e38:	e0 f7       	brcc	.-8      	; 0x3e32 <pow+0x50>
    3e3a:	f7 39       	cpi	r31, 0x97	; 151
    3e3c:	50 f0       	brcs	.+20     	; 0x3e52 <pow+0x70>
    3e3e:	19 f0       	breq	.+6      	; 0x3e46 <pow+0x64>
    3e40:	ff 3a       	cpi	r31, 0xAF	; 175
    3e42:	38 f4       	brcc	.+14     	; 0x3e52 <pow+0x70>
    3e44:	9f 77       	andi	r25, 0x7F	; 127
    3e46:	9f 93       	push	r25
    3e48:	0c d0       	rcall	.+24     	; 0x3e62 <pow+0x80>
    3e4a:	0f 90       	pop	r0
    3e4c:	07 fc       	sbrc	r0, 7
    3e4e:	90 58       	subi	r25, 0x80	; 128
    3e50:	08 95       	ret
    3e52:	3e f0       	brts	.+14     	; 0x3e62 <pow+0x80>
    3e54:	9e ce       	rjmp	.-708    	; 0x3b92 <__fp_nan>
    3e56:	60 e0       	ldi	r22, 0x00	; 0
    3e58:	70 e0       	ldi	r23, 0x00	; 0
    3e5a:	80 e8       	ldi	r24, 0x80	; 128
    3e5c:	9f e3       	ldi	r25, 0x3F	; 63
    3e5e:	08 95       	ret
    3e60:	4f e7       	ldi	r20, 0x7F	; 127
    3e62:	9f 77       	andi	r25, 0x7F	; 127
    3e64:	5f 93       	push	r21
    3e66:	4f 93       	push	r20
    3e68:	3f 93       	push	r19
    3e6a:	2f 93       	push	r18
    3e6c:	d2 d0       	rcall	.+420    	; 0x4012 <log>
    3e6e:	2f 91       	pop	r18
    3e70:	3f 91       	pop	r19
    3e72:	4f 91       	pop	r20
    3e74:	5f 91       	pop	r21
    3e76:	52 df       	rcall	.-348    	; 0x3d1c <__mulsf3>
    3e78:	50 c0       	rjmp	.+160    	; 0x3f1a <exp>

00003e7a <sin>:
    3e7a:	9f 93       	push	r25
    3e7c:	d2 de       	rcall	.-604    	; 0x3c22 <__fp_rempio2>
    3e7e:	0f 90       	pop	r0
    3e80:	07 fc       	sbrc	r0, 7
    3e82:	ee 5f       	subi	r30, 0xFE	; 254
    3e84:	06 cf       	rjmp	.-500    	; 0x3c92 <__fp_sinus>
    3e86:	11 f4       	brne	.+4      	; 0x3e8c <sin+0x12>
    3e88:	0e f4       	brtc	.+2      	; 0x3e8c <sin+0x12>
    3e8a:	83 ce       	rjmp	.-762    	; 0x3b92 <__fp_nan>
    3e8c:	72 c0       	rjmp	.+228    	; 0x3f72 <__fp_mpack>

00003e8e <sqrt>:
    3e8e:	1a df       	rcall	.-460    	; 0x3cc4 <__fp_splitA>
    3e90:	d0 f3       	brcs	.-12     	; 0x3e86 <sin+0xc>
    3e92:	99 23       	and	r25, r25
    3e94:	d9 f3       	breq	.-10     	; 0x3e8c <sin+0x12>
    3e96:	ce f3       	brts	.-14     	; 0x3e8a <sin+0x10>
    3e98:	9f 57       	subi	r25, 0x7F	; 127
    3e9a:	55 0b       	sbc	r21, r21
    3e9c:	87 ff       	sbrs	r24, 7
    3e9e:	77 d0       	rcall	.+238    	; 0x3f8e <__fp_norm2>
    3ea0:	00 24       	eor	r0, r0
    3ea2:	a0 e6       	ldi	r26, 0x60	; 96
    3ea4:	40 ea       	ldi	r20, 0xA0	; 160
    3ea6:	90 01       	movw	r18, r0
    3ea8:	80 58       	subi	r24, 0x80	; 128
    3eaa:	56 95       	lsr	r21
    3eac:	97 95       	ror	r25
    3eae:	28 f4       	brcc	.+10     	; 0x3eba <sqrt+0x2c>
    3eb0:	80 5c       	subi	r24, 0xC0	; 192
    3eb2:	66 0f       	add	r22, r22
    3eb4:	77 1f       	adc	r23, r23
    3eb6:	88 1f       	adc	r24, r24
    3eb8:	20 f0       	brcs	.+8      	; 0x3ec2 <sqrt+0x34>
    3eba:	26 17       	cp	r18, r22
    3ebc:	37 07       	cpc	r19, r23
    3ebe:	48 07       	cpc	r20, r24
    3ec0:	30 f4       	brcc	.+12     	; 0x3ece <sqrt+0x40>
    3ec2:	62 1b       	sub	r22, r18
    3ec4:	73 0b       	sbc	r23, r19
    3ec6:	84 0b       	sbc	r24, r20
    3ec8:	20 29       	or	r18, r0
    3eca:	31 29       	or	r19, r1
    3ecc:	4a 2b       	or	r20, r26
    3ece:	a6 95       	lsr	r26
    3ed0:	17 94       	ror	r1
    3ed2:	07 94       	ror	r0
    3ed4:	20 25       	eor	r18, r0
    3ed6:	31 25       	eor	r19, r1
    3ed8:	4a 27       	eor	r20, r26
    3eda:	58 f7       	brcc	.-42     	; 0x3eb2 <sqrt+0x24>
    3edc:	66 0f       	add	r22, r22
    3ede:	77 1f       	adc	r23, r23
    3ee0:	88 1f       	adc	r24, r24
    3ee2:	20 f0       	brcs	.+8      	; 0x3eec <sqrt+0x5e>
    3ee4:	26 17       	cp	r18, r22
    3ee6:	37 07       	cpc	r19, r23
    3ee8:	48 07       	cpc	r20, r24
    3eea:	30 f4       	brcc	.+12     	; 0x3ef8 <sqrt+0x6a>
    3eec:	62 0b       	sbc	r22, r18
    3eee:	73 0b       	sbc	r23, r19
    3ef0:	84 0b       	sbc	r24, r20
    3ef2:	20 0d       	add	r18, r0
    3ef4:	31 1d       	adc	r19, r1
    3ef6:	41 1d       	adc	r20, r1
    3ef8:	a0 95       	com	r26
    3efa:	81 f7       	brne	.-32     	; 0x3edc <sqrt+0x4e>
    3efc:	b9 01       	movw	r22, r18
    3efe:	84 2f       	mov	r24, r20
    3f00:	91 58       	subi	r25, 0x81	; 129
    3f02:	88 0f       	add	r24, r24
    3f04:	96 95       	lsr	r25
    3f06:	87 95       	ror	r24
    3f08:	08 95       	ret

00003f0a <square>:
    3f0a:	9b 01       	movw	r18, r22
    3f0c:	ac 01       	movw	r20, r24
    3f0e:	06 cf       	rjmp	.-500    	; 0x3d1c <__mulsf3>
    3f10:	19 f4       	brne	.+6      	; 0x3f18 <square+0xe>
    3f12:	0e f0       	brts	.+2      	; 0x3f16 <square+0xc>
    3f14:	38 ce       	rjmp	.-912    	; 0x3b86 <__fp_inf>
    3f16:	f0 ce       	rjmp	.-544    	; 0x3cf8 <__fp_zero>
    3f18:	3c ce       	rjmp	.-904    	; 0x3b92 <__fp_nan>

00003f1a <exp>:
    3f1a:	d4 de       	rcall	.-600    	; 0x3cc4 <__fp_splitA>
    3f1c:	c8 f3       	brcs	.-14     	; 0x3f10 <square+0x6>
    3f1e:	96 38       	cpi	r25, 0x86	; 134
    3f20:	c0 f7       	brcc	.-16     	; 0x3f12 <square+0x8>
    3f22:	07 f8       	bld	r0, 7
    3f24:	0f 92       	push	r0
    3f26:	e8 94       	clt
    3f28:	2b e3       	ldi	r18, 0x3B	; 59
    3f2a:	3a ea       	ldi	r19, 0xAA	; 170
    3f2c:	48 eb       	ldi	r20, 0xB8	; 184
    3f2e:	5f e7       	ldi	r21, 0x7F	; 127
    3f30:	03 df       	rcall	.-506    	; 0x3d38 <__mulsf3_pse>
    3f32:	0f 92       	push	r0
    3f34:	0f 92       	push	r0
    3f36:	0f 92       	push	r0
    3f38:	4d b7       	in	r20, 0x3d	; 61
    3f3a:	5e b7       	in	r21, 0x3e	; 62
    3f3c:	0f 92       	push	r0
    3f3e:	a9 d0       	rcall	.+338    	; 0x4092 <modf>
    3f40:	eb e6       	ldi	r30, 0x6B	; 107
    3f42:	f1 e0       	ldi	r31, 0x01	; 1
    3f44:	29 de       	rcall	.-942    	; 0x3b98 <__fp_powser>
    3f46:	4f 91       	pop	r20
    3f48:	5f 91       	pop	r21
    3f4a:	ef 91       	pop	r30
    3f4c:	ff 91       	pop	r31
    3f4e:	e5 95       	asr	r30
    3f50:	ee 1f       	adc	r30, r30
    3f52:	ff 1f       	adc	r31, r31
    3f54:	49 f0       	breq	.+18     	; 0x3f68 <exp+0x4e>
    3f56:	fe 57       	subi	r31, 0x7E	; 126
    3f58:	e0 68       	ori	r30, 0x80	; 128
    3f5a:	44 27       	eor	r20, r20
    3f5c:	ee 0f       	add	r30, r30
    3f5e:	44 1f       	adc	r20, r20
    3f60:	fa 95       	dec	r31
    3f62:	e1 f7       	brne	.-8      	; 0x3f5c <exp+0x42>
    3f64:	41 95       	neg	r20
    3f66:	55 0b       	sbc	r21, r21
    3f68:	1b d0       	rcall	.+54     	; 0x3fa0 <ldexp>
    3f6a:	0f 90       	pop	r0
    3f6c:	07 fe       	sbrs	r0, 7
    3f6e:	cf ce       	rjmp	.-610    	; 0x3d0e <inverse>
    3f70:	08 95       	ret

00003f72 <__fp_mpack>:
    3f72:	9f 3f       	cpi	r25, 0xFF	; 255
    3f74:	31 f0       	breq	.+12     	; 0x3f82 <__fp_mpack_finite+0xc>

00003f76 <__fp_mpack_finite>:
    3f76:	91 50       	subi	r25, 0x01	; 1
    3f78:	20 f4       	brcc	.+8      	; 0x3f82 <__fp_mpack_finite+0xc>
    3f7a:	87 95       	ror	r24
    3f7c:	77 95       	ror	r23
    3f7e:	67 95       	ror	r22
    3f80:	b7 95       	ror	r27
    3f82:	88 0f       	add	r24, r24
    3f84:	91 1d       	adc	r25, r1
    3f86:	96 95       	lsr	r25
    3f88:	87 95       	ror	r24
    3f8a:	97 f9       	bld	r25, 7
    3f8c:	08 95       	ret

00003f8e <__fp_norm2>:
    3f8e:	91 50       	subi	r25, 0x01	; 1
    3f90:	50 40       	sbci	r21, 0x00	; 0
    3f92:	66 0f       	add	r22, r22
    3f94:	77 1f       	adc	r23, r23
    3f96:	88 1f       	adc	r24, r24
    3f98:	d2 f7       	brpl	.-12     	; 0x3f8e <__fp_norm2>
    3f9a:	08 95       	ret
    3f9c:	f4 cd       	rjmp	.-1048   	; 0x3b86 <__fp_inf>
    3f9e:	e9 cf       	rjmp	.-46     	; 0x3f72 <__fp_mpack>

00003fa0 <ldexp>:
    3fa0:	91 de       	rcall	.-734    	; 0x3cc4 <__fp_splitA>
    3fa2:	e8 f3       	brcs	.-6      	; 0x3f9e <__fp_norm2+0x10>
    3fa4:	99 23       	and	r25, r25
    3fa6:	d9 f3       	breq	.-10     	; 0x3f9e <__fp_norm2+0x10>
    3fa8:	94 0f       	add	r25, r20
    3faa:	51 1d       	adc	r21, r1
    3fac:	bb f3       	brvs	.-18     	; 0x3f9c <__fp_norm2+0xe>
    3fae:	91 50       	subi	r25, 0x01	; 1
    3fb0:	50 40       	sbci	r21, 0x00	; 0
    3fb2:	94 f0       	brlt	.+36     	; 0x3fd8 <ldexp+0x38>
    3fb4:	59 f0       	breq	.+22     	; 0x3fcc <ldexp+0x2c>
    3fb6:	88 23       	and	r24, r24
    3fb8:	32 f0       	brmi	.+12     	; 0x3fc6 <ldexp+0x26>
    3fba:	66 0f       	add	r22, r22
    3fbc:	77 1f       	adc	r23, r23
    3fbe:	88 1f       	adc	r24, r24
    3fc0:	91 50       	subi	r25, 0x01	; 1
    3fc2:	50 40       	sbci	r21, 0x00	; 0
    3fc4:	c1 f7       	brne	.-16     	; 0x3fb6 <ldexp+0x16>
    3fc6:	9e 3f       	cpi	r25, 0xFE	; 254
    3fc8:	51 05       	cpc	r21, r1
    3fca:	44 f7       	brge	.-48     	; 0x3f9c <__fp_norm2+0xe>
    3fcc:	88 0f       	add	r24, r24
    3fce:	91 1d       	adc	r25, r1
    3fd0:	96 95       	lsr	r25
    3fd2:	87 95       	ror	r24
    3fd4:	97 f9       	bld	r25, 7
    3fd6:	08 95       	ret
    3fd8:	5f 3f       	cpi	r21, 0xFF	; 255
    3fda:	ac f0       	brlt	.+42     	; 0x4006 <ldexp+0x66>
    3fdc:	98 3e       	cpi	r25, 0xE8	; 232
    3fde:	9c f0       	brlt	.+38     	; 0x4006 <ldexp+0x66>
    3fe0:	bb 27       	eor	r27, r27
    3fe2:	86 95       	lsr	r24
    3fe4:	77 95       	ror	r23
    3fe6:	67 95       	ror	r22
    3fe8:	b7 95       	ror	r27
    3fea:	08 f4       	brcc	.+2      	; 0x3fee <ldexp+0x4e>
    3fec:	b1 60       	ori	r27, 0x01	; 1
    3fee:	93 95       	inc	r25
    3ff0:	c1 f7       	brne	.-16     	; 0x3fe2 <ldexp+0x42>
    3ff2:	bb 0f       	add	r27, r27
    3ff4:	58 f7       	brcc	.-42     	; 0x3fcc <ldexp+0x2c>
    3ff6:	11 f4       	brne	.+4      	; 0x3ffc <ldexp+0x5c>
    3ff8:	60 ff       	sbrs	r22, 0
    3ffa:	e8 cf       	rjmp	.-48     	; 0x3fcc <ldexp+0x2c>
    3ffc:	6f 5f       	subi	r22, 0xFF	; 255
    3ffe:	7f 4f       	sbci	r23, 0xFF	; 255
    4000:	8f 4f       	sbci	r24, 0xFF	; 255
    4002:	9f 4f       	sbci	r25, 0xFF	; 255
    4004:	e3 cf       	rjmp	.-58     	; 0x3fcc <ldexp+0x2c>
    4006:	79 ce       	rjmp	.-782    	; 0x3cfa <__fp_szero>
    4008:	0e f0       	brts	.+2      	; 0x400c <ldexp+0x6c>
    400a:	b3 cf       	rjmp	.-154    	; 0x3f72 <__fp_mpack>
    400c:	c2 cd       	rjmp	.-1148   	; 0x3b92 <__fp_nan>
    400e:	68 94       	set
    4010:	ba cd       	rjmp	.-1164   	; 0x3b86 <__fp_inf>

00004012 <log>:
    4012:	58 de       	rcall	.-848    	; 0x3cc4 <__fp_splitA>
    4014:	c8 f3       	brcs	.-14     	; 0x4008 <ldexp+0x68>
    4016:	99 23       	and	r25, r25
    4018:	d1 f3       	breq	.-12     	; 0x400e <ldexp+0x6e>
    401a:	c6 f3       	brts	.-16     	; 0x400c <ldexp+0x6c>
    401c:	df 93       	push	r29
    401e:	cf 93       	push	r28
    4020:	1f 93       	push	r17
    4022:	0f 93       	push	r16
    4024:	ff 92       	push	r15
    4026:	c9 2f       	mov	r28, r25
    4028:	dd 27       	eor	r29, r29
    402a:	88 23       	and	r24, r24
    402c:	2a f0       	brmi	.+10     	; 0x4038 <log+0x26>
    402e:	21 97       	sbiw	r28, 0x01	; 1
    4030:	66 0f       	add	r22, r22
    4032:	77 1f       	adc	r23, r23
    4034:	88 1f       	adc	r24, r24
    4036:	da f7       	brpl	.-10     	; 0x402e <log+0x1c>
    4038:	20 e0       	ldi	r18, 0x00	; 0
    403a:	30 e0       	ldi	r19, 0x00	; 0
    403c:	40 e8       	ldi	r20, 0x80	; 128
    403e:	5f eb       	ldi	r21, 0xBF	; 191
    4040:	9f e3       	ldi	r25, 0x3F	; 63
    4042:	88 39       	cpi	r24, 0x98	; 152
    4044:	20 f0       	brcs	.+8      	; 0x404e <log+0x3c>
    4046:	80 3e       	cpi	r24, 0xE0	; 224
    4048:	30 f0       	brcs	.+12     	; 0x4056 <log+0x44>
    404a:	21 96       	adiw	r28, 0x01	; 1
    404c:	8f 77       	andi	r24, 0x7F	; 127
    404e:	a7 db       	rcall	.-2226   	; 0x379e <__addsf3>
    4050:	e3 e9       	ldi	r30, 0x93	; 147
    4052:	f1 e0       	ldi	r31, 0x01	; 1
    4054:	03 c0       	rjmp	.+6      	; 0x405c <log+0x4a>
    4056:	a3 db       	rcall	.-2234   	; 0x379e <__addsf3>
    4058:	e0 ec       	ldi	r30, 0xC0	; 192
    405a:	f1 e0       	ldi	r31, 0x01	; 1
    405c:	9d dd       	rcall	.-1222   	; 0x3b98 <__fp_powser>
    405e:	8b 01       	movw	r16, r22
    4060:	be 01       	movw	r22, r28
    4062:	ec 01       	movw	r28, r24
    4064:	fb 2e       	mov	r15, r27
    4066:	6f 57       	subi	r22, 0x7F	; 127
    4068:	71 09       	sbc	r23, r1
    406a:	75 95       	asr	r23
    406c:	77 1f       	adc	r23, r23
    406e:	88 0b       	sbc	r24, r24
    4070:	99 0b       	sbc	r25, r25
    4072:	0f dd       	rcall	.-1506   	; 0x3a92 <__floatsisf>
    4074:	28 e1       	ldi	r18, 0x18	; 24
    4076:	32 e7       	ldi	r19, 0x72	; 114
    4078:	41 e3       	ldi	r20, 0x31	; 49
    407a:	5f e3       	ldi	r21, 0x3F	; 63
    407c:	5b de       	rcall	.-842    	; 0x3d34 <__mulsf3x>
    407e:	af 2d       	mov	r26, r15
    4080:	98 01       	movw	r18, r16
    4082:	ae 01       	movw	r20, r28
    4084:	ff 90       	pop	r15
    4086:	0f 91       	pop	r16
    4088:	1f 91       	pop	r17
    408a:	cf 91       	pop	r28
    408c:	df 91       	pop	r29
    408e:	98 db       	rcall	.-2256   	; 0x37c0 <__addsf3x>
    4090:	ef cd       	rjmp	.-1058   	; 0x3c70 <__fp_round>

00004092 <modf>:
    4092:	fa 01       	movw	r30, r20
    4094:	dc 01       	movw	r26, r24
    4096:	aa 0f       	add	r26, r26
    4098:	bb 1f       	adc	r27, r27
    409a:	9b 01       	movw	r18, r22
    409c:	ac 01       	movw	r20, r24
    409e:	bf 57       	subi	r27, 0x7F	; 127
    40a0:	28 f4       	brcc	.+10     	; 0x40ac <modf+0x1a>
    40a2:	22 27       	eor	r18, r18
    40a4:	33 27       	eor	r19, r19
    40a6:	44 27       	eor	r20, r20
    40a8:	50 78       	andi	r21, 0x80	; 128
    40aa:	1f c0       	rjmp	.+62     	; 0x40ea <modf+0x58>
    40ac:	b7 51       	subi	r27, 0x17	; 23
    40ae:	88 f4       	brcc	.+34     	; 0x40d2 <modf+0x40>
    40b0:	ab 2f       	mov	r26, r27
    40b2:	00 24       	eor	r0, r0
    40b4:	46 95       	lsr	r20
    40b6:	37 95       	ror	r19
    40b8:	27 95       	ror	r18
    40ba:	01 1c       	adc	r0, r1
    40bc:	a3 95       	inc	r26
    40be:	d2 f3       	brmi	.-12     	; 0x40b4 <modf+0x22>
    40c0:	00 20       	and	r0, r0
    40c2:	69 f0       	breq	.+26     	; 0x40de <modf+0x4c>
    40c4:	22 0f       	add	r18, r18
    40c6:	33 1f       	adc	r19, r19
    40c8:	44 1f       	adc	r20, r20
    40ca:	b3 95       	inc	r27
    40cc:	da f3       	brmi	.-10     	; 0x40c4 <modf+0x32>
    40ce:	0d d0       	rcall	.+26     	; 0x40ea <modf+0x58>
    40d0:	65 cb       	rjmp	.-2358   	; 0x379c <__subsf3>
    40d2:	61 30       	cpi	r22, 0x01	; 1
    40d4:	71 05       	cpc	r23, r1
    40d6:	a0 e8       	ldi	r26, 0x80	; 128
    40d8:	8a 07       	cpc	r24, r26
    40da:	b9 46       	sbci	r27, 0x69	; 105
    40dc:	30 f4       	brcc	.+12     	; 0x40ea <modf+0x58>
    40de:	9b 01       	movw	r18, r22
    40e0:	ac 01       	movw	r20, r24
    40e2:	66 27       	eor	r22, r22
    40e4:	77 27       	eor	r23, r23
    40e6:	88 27       	eor	r24, r24
    40e8:	90 78       	andi	r25, 0x80	; 128
    40ea:	30 96       	adiw	r30, 0x00	; 0
    40ec:	21 f0       	breq	.+8      	; 0x40f6 <modf+0x64>
    40ee:	20 83       	st	Z, r18
    40f0:	31 83       	std	Z+1, r19	; 0x01
    40f2:	42 83       	std	Z+2, r20	; 0x02
    40f4:	53 83       	std	Z+3, r21	; 0x03
    40f6:	08 95       	ret

000040f8 <_ZN14HardwareSerial9availableEv>:
    40f8:	fc 01       	movw	r30, r24
    40fa:	24 85       	ldd	r18, Z+12	; 0x0c
    40fc:	35 85       	ldd	r19, Z+13	; 0x0d
    40fe:	f9 01       	movw	r30, r18
    4100:	e0 5c       	subi	r30, 0xC0	; 192
    4102:	ff 4f       	sbci	r31, 0xFF	; 255
    4104:	80 81       	ld	r24, Z
    4106:	91 81       	ldd	r25, Z+1	; 0x01
    4108:	32 96       	adiw	r30, 0x02	; 2
    410a:	20 81       	ld	r18, Z
    410c:	31 81       	ldd	r19, Z+1	; 0x01
    410e:	80 5c       	subi	r24, 0xC0	; 192
    4110:	9f 4f       	sbci	r25, 0xFF	; 255
    4112:	82 1b       	sub	r24, r18
    4114:	93 0b       	sbc	r25, r19
    4116:	8f 73       	andi	r24, 0x3F	; 63
    4118:	90 78       	andi	r25, 0x80	; 128
    411a:	99 23       	and	r25, r25
    411c:	24 f4       	brge	.+8      	; 0x4126 <_ZN14HardwareSerial9availableEv+0x2e>
    411e:	01 97       	sbiw	r24, 0x01	; 1
    4120:	80 6c       	ori	r24, 0xC0	; 192
    4122:	9f 6f       	ori	r25, 0xFF	; 255
    4124:	01 96       	adiw	r24, 0x01	; 1
    4126:	08 95       	ret

00004128 <_ZN14HardwareSerial4peekEv>:
    4128:	fc 01       	movw	r30, r24
    412a:	84 85       	ldd	r24, Z+12	; 0x0c
    412c:	95 85       	ldd	r25, Z+13	; 0x0d
    412e:	fc 01       	movw	r30, r24
    4130:	e0 5c       	subi	r30, 0xC0	; 192
    4132:	ff 4f       	sbci	r31, 0xFF	; 255
    4134:	40 81       	ld	r20, Z
    4136:	51 81       	ldd	r21, Z+1	; 0x01
    4138:	32 96       	adiw	r30, 0x02	; 2
    413a:	20 81       	ld	r18, Z
    413c:	31 81       	ldd	r19, Z+1	; 0x01
    413e:	42 17       	cp	r20, r18
    4140:	53 07       	cpc	r21, r19
    4142:	41 f0       	breq	.+16     	; 0x4154 <_ZN14HardwareSerial4peekEv+0x2c>
    4144:	20 81       	ld	r18, Z
    4146:	31 81       	ldd	r19, Z+1	; 0x01
    4148:	fc 01       	movw	r30, r24
    414a:	e2 0f       	add	r30, r18
    414c:	f3 1f       	adc	r31, r19
    414e:	80 81       	ld	r24, Z
    4150:	90 e0       	ldi	r25, 0x00	; 0
    4152:	08 95       	ret
    4154:	8f ef       	ldi	r24, 0xFF	; 255
    4156:	9f ef       	ldi	r25, 0xFF	; 255
    4158:	08 95       	ret

0000415a <_ZN14HardwareSerial4readEv>:
    415a:	fc 01       	movw	r30, r24
    415c:	84 85       	ldd	r24, Z+12	; 0x0c
    415e:	95 85       	ldd	r25, Z+13	; 0x0d
    4160:	fc 01       	movw	r30, r24
    4162:	e0 5c       	subi	r30, 0xC0	; 192
    4164:	ff 4f       	sbci	r31, 0xFF	; 255
    4166:	40 81       	ld	r20, Z
    4168:	51 81       	ldd	r21, Z+1	; 0x01
    416a:	32 96       	adiw	r30, 0x02	; 2
    416c:	20 81       	ld	r18, Z
    416e:	31 81       	ldd	r19, Z+1	; 0x01
    4170:	42 17       	cp	r20, r18
    4172:	53 07       	cpc	r21, r19
    4174:	81 f0       	breq	.+32     	; 0x4196 <_ZN14HardwareSerial4readEv+0x3c>
    4176:	20 81       	ld	r18, Z
    4178:	31 81       	ldd	r19, Z+1	; 0x01
    417a:	dc 01       	movw	r26, r24
    417c:	a2 0f       	add	r26, r18
    417e:	b3 1f       	adc	r27, r19
    4180:	8c 91       	ld	r24, X
    4182:	20 81       	ld	r18, Z
    4184:	31 81       	ldd	r19, Z+1	; 0x01
    4186:	2f 5f       	subi	r18, 0xFF	; 255
    4188:	3f 4f       	sbci	r19, 0xFF	; 255
    418a:	2f 73       	andi	r18, 0x3F	; 63
    418c:	33 27       	eor	r19, r19
    418e:	31 83       	std	Z+1, r19	; 0x01
    4190:	20 83       	st	Z, r18
    4192:	90 e0       	ldi	r25, 0x00	; 0
    4194:	08 95       	ret
    4196:	8f ef       	ldi	r24, 0xFF	; 255
    4198:	9f ef       	ldi	r25, 0xFF	; 255
    419a:	08 95       	ret

0000419c <_ZN14HardwareSerial5flushEv>:
    419c:	fc 01       	movw	r30, r24
    419e:	81 a1       	ldd	r24, Z+33	; 0x21
    41a0:	88 23       	and	r24, r24
    41a2:	29 f0       	breq	.+10     	; 0x41ae <_ZN14HardwareSerial5flushEv+0x12>
    41a4:	a4 89       	ldd	r26, Z+20	; 0x14
    41a6:	b5 89       	ldd	r27, Z+21	; 0x15
    41a8:	8c 91       	ld	r24, X
    41aa:	86 ff       	sbrs	r24, 6
    41ac:	fb cf       	rjmp	.-10     	; 0x41a4 <_ZN14HardwareSerial5flushEv+0x8>
    41ae:	11 a2       	std	Z+33, r1	; 0x21
    41b0:	08 95       	ret

000041b2 <_ZN14HardwareSerial5writeEh>:
    41b2:	1f 93       	push	r17
    41b4:	cf 93       	push	r28
    41b6:	df 93       	push	r29
    41b8:	ec 01       	movw	r28, r24
    41ba:	8e 85       	ldd	r24, Y+14	; 0x0e
    41bc:	9f 85       	ldd	r25, Y+15	; 0x0f
    41be:	fc 01       	movw	r30, r24
    41c0:	e0 5c       	subi	r30, 0xC0	; 192
    41c2:	ff 4f       	sbci	r31, 0xFF	; 255
    41c4:	01 90       	ld	r0, Z+
    41c6:	f0 81       	ld	r31, Z
    41c8:	e0 2d       	mov	r30, r0
    41ca:	31 96       	adiw	r30, 0x01	; 1
    41cc:	ef 73       	andi	r30, 0x3F	; 63
    41ce:	ff 27       	eor	r31, r31
    41d0:	1e 2f       	mov	r17, r30
    41d2:	7f 2f       	mov	r23, r31
    41d4:	dc 01       	movw	r26, r24
    41d6:	ae 5b       	subi	r26, 0xBE	; 190
    41d8:	bf 4f       	sbci	r27, 0xFF	; 255
    41da:	21 2f       	mov	r18, r17
    41dc:	37 2f       	mov	r19, r23
    41de:	4d 91       	ld	r20, X+
    41e0:	5c 91       	ld	r21, X
    41e2:	11 97       	sbiw	r26, 0x01	; 1
    41e4:	e4 17       	cp	r30, r20
    41e6:	f5 07       	cpc	r31, r21
    41e8:	c1 f3       	breq	.-16     	; 0x41da <_ZN14HardwareSerial5writeEh+0x28>
    41ea:	fc 01       	movw	r30, r24
    41ec:	e0 5c       	subi	r30, 0xC0	; 192
    41ee:	ff 4f       	sbci	r31, 0xFF	; 255
    41f0:	40 81       	ld	r20, Z
    41f2:	51 81       	ldd	r21, Z+1	; 0x01
    41f4:	fc 01       	movw	r30, r24
    41f6:	e4 0f       	add	r30, r20
    41f8:	f5 1f       	adc	r31, r21
    41fa:	60 83       	st	Z, r22
    41fc:	ee 85       	ldd	r30, Y+14	; 0x0e
    41fe:	ff 85       	ldd	r31, Y+15	; 0x0f
    4200:	e0 5c       	subi	r30, 0xC0	; 192
    4202:	ff 4f       	sbci	r31, 0xFF	; 255
    4204:	31 83       	std	Z+1, r19	; 0x01
    4206:	20 83       	st	Z, r18
    4208:	ee 89       	ldd	r30, Y+22	; 0x16
    420a:	ff 89       	ldd	r31, Y+23	; 0x17
    420c:	40 81       	ld	r20, Z
    420e:	21 e0       	ldi	r18, 0x01	; 1
    4210:	30 e0       	ldi	r19, 0x00	; 0
    4212:	c9 01       	movw	r24, r18
    4214:	0f 8c       	ldd	r0, Y+31	; 0x1f
    4216:	02 c0       	rjmp	.+4      	; 0x421c <_ZN14HardwareSerial5writeEh+0x6a>
    4218:	88 0f       	add	r24, r24
    421a:	99 1f       	adc	r25, r25
    421c:	0a 94       	dec	r0
    421e:	e2 f7       	brpl	.-8      	; 0x4218 <_ZN14HardwareSerial5writeEh+0x66>
    4220:	84 2b       	or	r24, r20
    4222:	80 83       	st	Z, r24
    4224:	81 e0       	ldi	r24, 0x01	; 1
    4226:	89 a3       	std	Y+33, r24	; 0x21
    4228:	ec 89       	ldd	r30, Y+20	; 0x14
    422a:	fd 89       	ldd	r31, Y+21	; 0x15
    422c:	80 81       	ld	r24, Z
    422e:	80 64       	ori	r24, 0x40	; 64
    4230:	80 83       	st	Z, r24
    4232:	81 e0       	ldi	r24, 0x01	; 1
    4234:	90 e0       	ldi	r25, 0x00	; 0
    4236:	df 91       	pop	r29
    4238:	cf 91       	pop	r28
    423a:	1f 91       	pop	r17
    423c:	08 95       	ret

0000423e <__vector_25>:
    423e:	1f 92       	push	r1
    4240:	0f 92       	push	r0
    4242:	0f b6       	in	r0, 0x3f	; 63
    4244:	0f 92       	push	r0
    4246:	11 24       	eor	r1, r1
    4248:	0b b6       	in	r0, 0x3b	; 59
    424a:	0f 92       	push	r0
    424c:	2f 93       	push	r18
    424e:	3f 93       	push	r19
    4250:	4f 93       	push	r20
    4252:	8f 93       	push	r24
    4254:	9f 93       	push	r25
    4256:	af 93       	push	r26
    4258:	bf 93       	push	r27
    425a:	ef 93       	push	r30
    425c:	ff 93       	push	r31
    425e:	80 91 c0 00 	lds	r24, 0x00C0
    4262:	82 fd       	sbrc	r24, 2
    4264:	1a c0       	rjmp	.+52     	; 0x429a <__vector_25+0x5c>
    4266:	40 91 c6 00 	lds	r20, 0x00C6
    426a:	80 91 f9 11 	lds	r24, 0x11F9
    426e:	90 91 fa 11 	lds	r25, 0x11FA
    4272:	01 96       	adiw	r24, 0x01	; 1
    4274:	8f 73       	andi	r24, 0x3F	; 63
    4276:	99 27       	eor	r25, r25
    4278:	20 91 fb 11 	lds	r18, 0x11FB
    427c:	30 91 fc 11 	lds	r19, 0x11FC
    4280:	82 17       	cp	r24, r18
    4282:	93 07       	cpc	r25, r19
    4284:	61 f0       	breq	.+24     	; 0x429e <__vector_25+0x60>
    4286:	e9 ef       	ldi	r30, 0xF9	; 249
    4288:	f1 e1       	ldi	r31, 0x11	; 17
    428a:	a0 81       	ld	r26, Z
    428c:	b1 81       	ldd	r27, Z+1	; 0x01
    428e:	a7 54       	subi	r26, 0x47	; 71
    4290:	be 4e       	sbci	r27, 0xEE	; 238
    4292:	4c 93       	st	X, r20
    4294:	91 83       	std	Z+1, r25	; 0x01
    4296:	80 83       	st	Z, r24
    4298:	02 c0       	rjmp	.+4      	; 0x429e <__vector_25+0x60>
    429a:	80 91 c6 00 	lds	r24, 0x00C6
    429e:	ff 91       	pop	r31
    42a0:	ef 91       	pop	r30
    42a2:	bf 91       	pop	r27
    42a4:	af 91       	pop	r26
    42a6:	9f 91       	pop	r25
    42a8:	8f 91       	pop	r24
    42aa:	4f 91       	pop	r20
    42ac:	3f 91       	pop	r19
    42ae:	2f 91       	pop	r18
    42b0:	0f 90       	pop	r0
    42b2:	0b be       	out	0x3b, r0	; 59
    42b4:	0f 90       	pop	r0
    42b6:	0f be       	out	0x3f, r0	; 63
    42b8:	0f 90       	pop	r0
    42ba:	1f 90       	pop	r1
    42bc:	18 95       	reti

000042be <__vector_36>:
    42be:	1f 92       	push	r1
    42c0:	0f 92       	push	r0
    42c2:	0f b6       	in	r0, 0x3f	; 63
    42c4:	0f 92       	push	r0
    42c6:	11 24       	eor	r1, r1
    42c8:	0b b6       	in	r0, 0x3b	; 59
    42ca:	0f 92       	push	r0
    42cc:	2f 93       	push	r18
    42ce:	3f 93       	push	r19
    42d0:	4f 93       	push	r20
    42d2:	8f 93       	push	r24
    42d4:	9f 93       	push	r25
    42d6:	af 93       	push	r26
    42d8:	bf 93       	push	r27
    42da:	ef 93       	push	r30
    42dc:	ff 93       	push	r31
    42de:	80 91 c8 00 	lds	r24, 0x00C8
    42e2:	82 fd       	sbrc	r24, 2
    42e4:	1a c0       	rjmp	.+52     	; 0x431a <__vector_36+0x5c>
    42e6:	40 91 ce 00 	lds	r20, 0x00CE
    42ea:	80 91 71 11 	lds	r24, 0x1171
    42ee:	90 91 72 11 	lds	r25, 0x1172
    42f2:	01 96       	adiw	r24, 0x01	; 1
    42f4:	8f 73       	andi	r24, 0x3F	; 63
    42f6:	99 27       	eor	r25, r25
    42f8:	20 91 73 11 	lds	r18, 0x1173
    42fc:	30 91 74 11 	lds	r19, 0x1174
    4300:	82 17       	cp	r24, r18
    4302:	93 07       	cpc	r25, r19
    4304:	61 f0       	breq	.+24     	; 0x431e <__vector_36+0x60>
    4306:	e1 e7       	ldi	r30, 0x71	; 113
    4308:	f1 e1       	ldi	r31, 0x11	; 17
    430a:	a0 81       	ld	r26, Z
    430c:	b1 81       	ldd	r27, Z+1	; 0x01
    430e:	af 5c       	subi	r26, 0xCF	; 207
    4310:	be 4e       	sbci	r27, 0xEE	; 238
    4312:	4c 93       	st	X, r20
    4314:	91 83       	std	Z+1, r25	; 0x01
    4316:	80 83       	st	Z, r24
    4318:	02 c0       	rjmp	.+4      	; 0x431e <__vector_36+0x60>
    431a:	80 91 ce 00 	lds	r24, 0x00CE
    431e:	ff 91       	pop	r31
    4320:	ef 91       	pop	r30
    4322:	bf 91       	pop	r27
    4324:	af 91       	pop	r26
    4326:	9f 91       	pop	r25
    4328:	8f 91       	pop	r24
    432a:	4f 91       	pop	r20
    432c:	3f 91       	pop	r19
    432e:	2f 91       	pop	r18
    4330:	0f 90       	pop	r0
    4332:	0b be       	out	0x3b, r0	; 59
    4334:	0f 90       	pop	r0
    4336:	0f be       	out	0x3f, r0	; 63
    4338:	0f 90       	pop	r0
    433a:	1f 90       	pop	r1
    433c:	18 95       	reti

0000433e <__vector_26>:
    433e:	1f 92       	push	r1
    4340:	0f 92       	push	r0
    4342:	0f b6       	in	r0, 0x3f	; 63
    4344:	0f 92       	push	r0
    4346:	11 24       	eor	r1, r1
    4348:	0b b6       	in	r0, 0x3b	; 59
    434a:	0f 92       	push	r0
    434c:	2f 93       	push	r18
    434e:	3f 93       	push	r19
    4350:	8f 93       	push	r24
    4352:	9f 93       	push	r25
    4354:	af 93       	push	r26
    4356:	bf 93       	push	r27
    4358:	ef 93       	push	r30
    435a:	ff 93       	push	r31
    435c:	20 91 b5 11 	lds	r18, 0x11B5
    4360:	30 91 b6 11 	lds	r19, 0x11B6
    4364:	80 91 b7 11 	lds	r24, 0x11B7
    4368:	90 91 b8 11 	lds	r25, 0x11B8
    436c:	28 17       	cp	r18, r24
    436e:	39 07       	cpc	r19, r25
    4370:	31 f4       	brne	.+12     	; 0x437e <__vector_26+0x40>
    4372:	e1 ec       	ldi	r30, 0xC1	; 193
    4374:	f0 e0       	ldi	r31, 0x00	; 0
    4376:	80 81       	ld	r24, Z
    4378:	8f 7d       	andi	r24, 0xDF	; 223
    437a:	80 83       	st	Z, r24
    437c:	10 c0       	rjmp	.+32     	; 0x439e <__vector_26+0x60>
    437e:	e7 eb       	ldi	r30, 0xB7	; 183
    4380:	f1 e1       	ldi	r31, 0x11	; 17
    4382:	a0 81       	ld	r26, Z
    4384:	b1 81       	ldd	r27, Z+1	; 0x01
    4386:	ab 58       	subi	r26, 0x8B	; 139
    4388:	be 4e       	sbci	r27, 0xEE	; 238
    438a:	2c 91       	ld	r18, X
    438c:	80 81       	ld	r24, Z
    438e:	91 81       	ldd	r25, Z+1	; 0x01
    4390:	01 96       	adiw	r24, 0x01	; 1
    4392:	8f 73       	andi	r24, 0x3F	; 63
    4394:	99 27       	eor	r25, r25
    4396:	91 83       	std	Z+1, r25	; 0x01
    4398:	80 83       	st	Z, r24
    439a:	20 93 c6 00 	sts	0x00C6, r18
    439e:	ff 91       	pop	r31
    43a0:	ef 91       	pop	r30
    43a2:	bf 91       	pop	r27
    43a4:	af 91       	pop	r26
    43a6:	9f 91       	pop	r25
    43a8:	8f 91       	pop	r24
    43aa:	3f 91       	pop	r19
    43ac:	2f 91       	pop	r18
    43ae:	0f 90       	pop	r0
    43b0:	0b be       	out	0x3b, r0	; 59
    43b2:	0f 90       	pop	r0
    43b4:	0f be       	out	0x3f, r0	; 63
    43b6:	0f 90       	pop	r0
    43b8:	1f 90       	pop	r1
    43ba:	18 95       	reti

000043bc <__vector_37>:
    43bc:	1f 92       	push	r1
    43be:	0f 92       	push	r0
    43c0:	0f b6       	in	r0, 0x3f	; 63
    43c2:	0f 92       	push	r0
    43c4:	11 24       	eor	r1, r1
    43c6:	0b b6       	in	r0, 0x3b	; 59
    43c8:	0f 92       	push	r0
    43ca:	2f 93       	push	r18
    43cc:	3f 93       	push	r19
    43ce:	8f 93       	push	r24
    43d0:	9f 93       	push	r25
    43d2:	af 93       	push	r26
    43d4:	bf 93       	push	r27
    43d6:	ef 93       	push	r30
    43d8:	ff 93       	push	r31
    43da:	20 91 2d 11 	lds	r18, 0x112D
    43de:	30 91 2e 11 	lds	r19, 0x112E
    43e2:	80 91 2f 11 	lds	r24, 0x112F
    43e6:	90 91 30 11 	lds	r25, 0x1130
    43ea:	28 17       	cp	r18, r24
    43ec:	39 07       	cpc	r19, r25
    43ee:	31 f4       	brne	.+12     	; 0x43fc <__vector_37+0x40>
    43f0:	e9 ec       	ldi	r30, 0xC9	; 201
    43f2:	f0 e0       	ldi	r31, 0x00	; 0
    43f4:	80 81       	ld	r24, Z
    43f6:	8f 7d       	andi	r24, 0xDF	; 223
    43f8:	80 83       	st	Z, r24
    43fa:	10 c0       	rjmp	.+32     	; 0x441c <__vector_37+0x60>
    43fc:	ef e2       	ldi	r30, 0x2F	; 47
    43fe:	f1 e1       	ldi	r31, 0x11	; 17
    4400:	a0 81       	ld	r26, Z
    4402:	b1 81       	ldd	r27, Z+1	; 0x01
    4404:	a3 51       	subi	r26, 0x13	; 19
    4406:	bf 4e       	sbci	r27, 0xEF	; 239
    4408:	2c 91       	ld	r18, X
    440a:	80 81       	ld	r24, Z
    440c:	91 81       	ldd	r25, Z+1	; 0x01
    440e:	01 96       	adiw	r24, 0x01	; 1
    4410:	8f 73       	andi	r24, 0x3F	; 63
    4412:	99 27       	eor	r25, r25
    4414:	91 83       	std	Z+1, r25	; 0x01
    4416:	80 83       	st	Z, r24
    4418:	20 93 ce 00 	sts	0x00CE, r18
    441c:	ff 91       	pop	r31
    441e:	ef 91       	pop	r30
    4420:	bf 91       	pop	r27
    4422:	af 91       	pop	r26
    4424:	9f 91       	pop	r25
    4426:	8f 91       	pop	r24
    4428:	3f 91       	pop	r19
    442a:	2f 91       	pop	r18
    442c:	0f 90       	pop	r0
    442e:	0b be       	out	0x3b, r0	; 59
    4430:	0f 90       	pop	r0
    4432:	0f be       	out	0x3f, r0	; 63
    4434:	0f 90       	pop	r0
    4436:	1f 90       	pop	r1
    4438:	18 95       	reti

0000443a <__vector_52>:
    443a:	1f 92       	push	r1
    443c:	0f 92       	push	r0
    443e:	0f b6       	in	r0, 0x3f	; 63
    4440:	0f 92       	push	r0
    4442:	11 24       	eor	r1, r1
    4444:	0b b6       	in	r0, 0x3b	; 59
    4446:	0f 92       	push	r0
    4448:	2f 93       	push	r18
    444a:	3f 93       	push	r19
    444c:	8f 93       	push	r24
    444e:	9f 93       	push	r25
    4450:	af 93       	push	r26
    4452:	bf 93       	push	r27
    4454:	ef 93       	push	r30
    4456:	ff 93       	push	r31
    4458:	20 91 a5 10 	lds	r18, 0x10A5
    445c:	30 91 a6 10 	lds	r19, 0x10A6
    4460:	80 91 a7 10 	lds	r24, 0x10A7
    4464:	90 91 a8 10 	lds	r25, 0x10A8
    4468:	28 17       	cp	r18, r24
    446a:	39 07       	cpc	r19, r25
    446c:	31 f4       	brne	.+12     	; 0x447a <__vector_52+0x40>
    446e:	e1 ed       	ldi	r30, 0xD1	; 209
    4470:	f0 e0       	ldi	r31, 0x00	; 0
    4472:	80 81       	ld	r24, Z
    4474:	8f 7d       	andi	r24, 0xDF	; 223
    4476:	80 83       	st	Z, r24
    4478:	10 c0       	rjmp	.+32     	; 0x449a <__vector_52+0x60>
    447a:	e7 ea       	ldi	r30, 0xA7	; 167
    447c:	f0 e1       	ldi	r31, 0x10	; 16
    447e:	a0 81       	ld	r26, Z
    4480:	b1 81       	ldd	r27, Z+1	; 0x01
    4482:	ab 59       	subi	r26, 0x9B	; 155
    4484:	bf 4e       	sbci	r27, 0xEF	; 239
    4486:	2c 91       	ld	r18, X
    4488:	80 81       	ld	r24, Z
    448a:	91 81       	ldd	r25, Z+1	; 0x01
    448c:	01 96       	adiw	r24, 0x01	; 1
    448e:	8f 73       	andi	r24, 0x3F	; 63
    4490:	99 27       	eor	r25, r25
    4492:	91 83       	std	Z+1, r25	; 0x01
    4494:	80 83       	st	Z, r24
    4496:	20 93 d6 00 	sts	0x00D6, r18
    449a:	ff 91       	pop	r31
    449c:	ef 91       	pop	r30
    449e:	bf 91       	pop	r27
    44a0:	af 91       	pop	r26
    44a2:	9f 91       	pop	r25
    44a4:	8f 91       	pop	r24
    44a6:	3f 91       	pop	r19
    44a8:	2f 91       	pop	r18
    44aa:	0f 90       	pop	r0
    44ac:	0b be       	out	0x3b, r0	; 59
    44ae:	0f 90       	pop	r0
    44b0:	0f be       	out	0x3f, r0	; 63
    44b2:	0f 90       	pop	r0
    44b4:	1f 90       	pop	r1
    44b6:	18 95       	reti

000044b8 <__vector_55>:
    44b8:	1f 92       	push	r1
    44ba:	0f 92       	push	r0
    44bc:	0f b6       	in	r0, 0x3f	; 63
    44be:	0f 92       	push	r0
    44c0:	11 24       	eor	r1, r1
    44c2:	0b b6       	in	r0, 0x3b	; 59
    44c4:	0f 92       	push	r0
    44c6:	2f 93       	push	r18
    44c8:	3f 93       	push	r19
    44ca:	8f 93       	push	r24
    44cc:	9f 93       	push	r25
    44ce:	af 93       	push	r26
    44d0:	bf 93       	push	r27
    44d2:	ef 93       	push	r30
    44d4:	ff 93       	push	r31
    44d6:	20 91 1d 10 	lds	r18, 0x101D
    44da:	30 91 1e 10 	lds	r19, 0x101E
    44de:	80 91 1f 10 	lds	r24, 0x101F
    44e2:	90 91 20 10 	lds	r25, 0x1020
    44e6:	28 17       	cp	r18, r24
    44e8:	39 07       	cpc	r19, r25
    44ea:	31 f4       	brne	.+12     	; 0x44f8 <__vector_55+0x40>
    44ec:	e1 e3       	ldi	r30, 0x31	; 49
    44ee:	f1 e0       	ldi	r31, 0x01	; 1
    44f0:	80 81       	ld	r24, Z
    44f2:	8f 7d       	andi	r24, 0xDF	; 223
    44f4:	80 83       	st	Z, r24
    44f6:	10 c0       	rjmp	.+32     	; 0x4518 <__vector_55+0x60>
    44f8:	ef e1       	ldi	r30, 0x1F	; 31
    44fa:	f0 e1       	ldi	r31, 0x10	; 16
    44fc:	a0 81       	ld	r26, Z
    44fe:	b1 81       	ldd	r27, Z+1	; 0x01
    4500:	a3 52       	subi	r26, 0x23	; 35
    4502:	b0 4f       	sbci	r27, 0xF0	; 240
    4504:	2c 91       	ld	r18, X
    4506:	80 81       	ld	r24, Z
    4508:	91 81       	ldd	r25, Z+1	; 0x01
    450a:	01 96       	adiw	r24, 0x01	; 1
    450c:	8f 73       	andi	r24, 0x3F	; 63
    450e:	99 27       	eor	r25, r25
    4510:	91 83       	std	Z+1, r25	; 0x01
    4512:	80 83       	st	Z, r24
    4514:	20 93 36 01 	sts	0x0136, r18
    4518:	ff 91       	pop	r31
    451a:	ef 91       	pop	r30
    451c:	bf 91       	pop	r27
    451e:	af 91       	pop	r26
    4520:	9f 91       	pop	r25
    4522:	8f 91       	pop	r24
    4524:	3f 91       	pop	r19
    4526:	2f 91       	pop	r18
    4528:	0f 90       	pop	r0
    452a:	0b be       	out	0x3b, r0	; 59
    452c:	0f 90       	pop	r0
    452e:	0f be       	out	0x3f, r0	; 63
    4530:	0f 90       	pop	r0
    4532:	1f 90       	pop	r1
    4534:	18 95       	reti

00004536 <_ZN14HardwareSerialC1EP11ring_bufferS1_PVhS3_S3_S3_S3_S3_hhhhh>:
    4536:	8f 92       	push	r8
    4538:	9f 92       	push	r9
    453a:	af 92       	push	r10
    453c:	bf 92       	push	r11
    453e:	cf 92       	push	r12
    4540:	df 92       	push	r13
    4542:	ef 92       	push	r14
    4544:	ff 92       	push	r15
    4546:	0f 93       	push	r16
    4548:	1f 93       	push	r17
    454a:	cf 93       	push	r28
    454c:	df 93       	push	r29
    454e:	cd b7       	in	r28, 0x3d	; 61
    4550:	de b7       	in	r29, 0x3e	; 62
    4552:	fc 01       	movw	r30, r24
    4554:	13 82       	std	Z+3, r1	; 0x03
    4556:	12 82       	std	Z+2, r1	; 0x02
    4558:	88 ee       	ldi	r24, 0xE8	; 232
    455a:	93 e0       	ldi	r25, 0x03	; 3
    455c:	a0 e0       	ldi	r26, 0x00	; 0
    455e:	b0 e0       	ldi	r27, 0x00	; 0
    4560:	84 83       	std	Z+4, r24	; 0x04
    4562:	95 83       	std	Z+5, r25	; 0x05
    4564:	a6 83       	std	Z+6, r26	; 0x06
    4566:	b7 83       	std	Z+7, r27	; 0x07
    4568:	8f ec       	ldi	r24, 0xCF	; 207
    456a:	92 e0       	ldi	r25, 0x02	; 2
    456c:	91 83       	std	Z+1, r25	; 0x01
    456e:	80 83       	st	Z, r24
    4570:	75 87       	std	Z+13, r23	; 0x0d
    4572:	64 87       	std	Z+12, r22	; 0x0c
    4574:	57 87       	std	Z+15, r21	; 0x0f
    4576:	46 87       	std	Z+14, r20	; 0x0e
    4578:	31 8b       	std	Z+17, r19	; 0x11
    457a:	20 8b       	std	Z+16, r18	; 0x10
    457c:	13 8b       	std	Z+19, r17	; 0x13
    457e:	02 8b       	std	Z+18, r16	; 0x12
    4580:	f5 8a       	std	Z+21, r15	; 0x15
    4582:	e4 8a       	std	Z+20, r14	; 0x14
    4584:	d7 8a       	std	Z+23, r13	; 0x17
    4586:	c6 8a       	std	Z+22, r12	; 0x16
    4588:	b1 8e       	std	Z+25, r11	; 0x19
    458a:	a0 8e       	std	Z+24, r10	; 0x18
    458c:	93 8e       	std	Z+27, r9	; 0x1b
    458e:	82 8e       	std	Z+26, r8	; 0x1a
    4590:	88 89       	ldd	r24, Y+16	; 0x10
    4592:	84 8f       	std	Z+28, r24	; 0x1c
    4594:	89 89       	ldd	r24, Y+17	; 0x11
    4596:	85 8f       	std	Z+29, r24	; 0x1d
    4598:	8a 89       	ldd	r24, Y+18	; 0x12
    459a:	86 8f       	std	Z+30, r24	; 0x1e
    459c:	8b 89       	ldd	r24, Y+19	; 0x13
    459e:	87 8f       	std	Z+31, r24	; 0x1f
    45a0:	8c 89       	ldd	r24, Y+20	; 0x14
    45a2:	80 a3       	std	Z+32, r24	; 0x20
    45a4:	df 91       	pop	r29
    45a6:	cf 91       	pop	r28
    45a8:	1f 91       	pop	r17
    45aa:	0f 91       	pop	r16
    45ac:	ff 90       	pop	r15
    45ae:	ef 90       	pop	r14
    45b0:	df 90       	pop	r13
    45b2:	cf 90       	pop	r12
    45b4:	bf 90       	pop	r11
    45b6:	af 90       	pop	r10
    45b8:	9f 90       	pop	r9
    45ba:	8f 90       	pop	r8
    45bc:	08 95       	ret

000045be <_ZN14HardwareSerial5beginEm>:
    45be:	cf 92       	push	r12
    45c0:	df 92       	push	r13
    45c2:	ef 92       	push	r14
    45c4:	ff 92       	push	r15
    45c6:	cf 93       	push	r28
    45c8:	df 93       	push	r29
    45ca:	ec 01       	movw	r28, r24
    45cc:	6a 01       	movw	r12, r20
    45ce:	7b 01       	movw	r14, r22
    45d0:	41 15       	cp	r20, r1
    45d2:	81 ee       	ldi	r24, 0xE1	; 225
    45d4:	58 07       	cpc	r21, r24
    45d6:	61 05       	cpc	r22, r1
    45d8:	71 05       	cpc	r23, r1
    45da:	01 f1       	breq	.+64     	; 0x461c <_ZN14HardwareSerial5beginEm+0x5e>
    45dc:	ec 89       	ldd	r30, Y+20	; 0x14
    45de:	fd 89       	ldd	r31, Y+21	; 0x15
    45e0:	81 e0       	ldi	r24, 0x01	; 1
    45e2:	90 e0       	ldi	r25, 0x00	; 0
    45e4:	08 a0       	ldd	r0, Y+32	; 0x20
    45e6:	02 c0       	rjmp	.+4      	; 0x45ec <_ZN14HardwareSerial5beginEm+0x2e>
    45e8:	88 0f       	add	r24, r24
    45ea:	99 1f       	adc	r25, r25
    45ec:	0a 94       	dec	r0
    45ee:	e2 f7       	brpl	.-8      	; 0x45e8 <_ZN14HardwareSerial5beginEm+0x2a>
    45f0:	80 83       	st	Z, r24
    45f2:	60 e0       	ldi	r22, 0x00	; 0
    45f4:	79 e0       	ldi	r23, 0x09	; 9
    45f6:	8d e3       	ldi	r24, 0x3D	; 61
    45f8:	90 e0       	ldi	r25, 0x00	; 0
    45fa:	a7 01       	movw	r20, r14
    45fc:	96 01       	movw	r18, r12
    45fe:	9e d3       	rcall	.+1852   	; 0x4d3c <__udivmodsi4>
    4600:	ba 01       	movw	r22, r20
    4602:	a9 01       	movw	r20, r18
    4604:	41 50       	subi	r20, 0x01	; 1
    4606:	51 09       	sbc	r21, r1
    4608:	61 09       	sbc	r22, r1
    460a:	71 09       	sbc	r23, r1
    460c:	76 95       	lsr	r23
    460e:	67 95       	ror	r22
    4610:	57 95       	ror	r21
    4612:	47 95       	ror	r20
    4614:	41 15       	cp	r20, r1
    4616:	80 e1       	ldi	r24, 0x10	; 16
    4618:	58 07       	cpc	r21, r24
    461a:	a0 f0       	brcs	.+40     	; 0x4644 <_ZN14HardwareSerial5beginEm+0x86>
    461c:	ec 89       	ldd	r30, Y+20	; 0x14
    461e:	fd 89       	ldd	r31, Y+21	; 0x15
    4620:	10 82       	st	Z, r1
    4622:	60 e8       	ldi	r22, 0x80	; 128
    4624:	74 e8       	ldi	r23, 0x84	; 132
    4626:	8e e1       	ldi	r24, 0x1E	; 30
    4628:	90 e0       	ldi	r25, 0x00	; 0
    462a:	a7 01       	movw	r20, r14
    462c:	96 01       	movw	r18, r12
    462e:	86 d3       	rcall	.+1804   	; 0x4d3c <__udivmodsi4>
    4630:	ba 01       	movw	r22, r20
    4632:	a9 01       	movw	r20, r18
    4634:	41 50       	subi	r20, 0x01	; 1
    4636:	51 09       	sbc	r21, r1
    4638:	61 09       	sbc	r22, r1
    463a:	71 09       	sbc	r23, r1
    463c:	76 95       	lsr	r23
    463e:	67 95       	ror	r22
    4640:	57 95       	ror	r21
    4642:	47 95       	ror	r20
    4644:	e8 89       	ldd	r30, Y+16	; 0x10
    4646:	f9 89       	ldd	r31, Y+17	; 0x11
    4648:	50 83       	st	Z, r21
    464a:	ea 89       	ldd	r30, Y+18	; 0x12
    464c:	fb 89       	ldd	r31, Y+19	; 0x13
    464e:	40 83       	st	Z, r20
    4650:	19 a2       	std	Y+33, r1	; 0x21
    4652:	ee 89       	ldd	r30, Y+22	; 0x16
    4654:	ff 89       	ldd	r31, Y+23	; 0x17
    4656:	40 81       	ld	r20, Z
    4658:	81 e0       	ldi	r24, 0x01	; 1
    465a:	90 e0       	ldi	r25, 0x00	; 0
    465c:	9c 01       	movw	r18, r24
    465e:	0c 8c       	ldd	r0, Y+28	; 0x1c
    4660:	02 c0       	rjmp	.+4      	; 0x4666 <_ZN14HardwareSerial5beginEm+0xa8>
    4662:	22 0f       	add	r18, r18
    4664:	33 1f       	adc	r19, r19
    4666:	0a 94       	dec	r0
    4668:	e2 f7       	brpl	.-8      	; 0x4662 <_ZN14HardwareSerial5beginEm+0xa4>
    466a:	24 2b       	or	r18, r20
    466c:	20 83       	st	Z, r18
    466e:	ee 89       	ldd	r30, Y+22	; 0x16
    4670:	ff 89       	ldd	r31, Y+23	; 0x17
    4672:	40 81       	ld	r20, Z
    4674:	9c 01       	movw	r18, r24
    4676:	0d 8c       	ldd	r0, Y+29	; 0x1d
    4678:	02 c0       	rjmp	.+4      	; 0x467e <_ZN14HardwareSerial5beginEm+0xc0>
    467a:	22 0f       	add	r18, r18
    467c:	33 1f       	adc	r19, r19
    467e:	0a 94       	dec	r0
    4680:	e2 f7       	brpl	.-8      	; 0x467a <_ZN14HardwareSerial5beginEm+0xbc>
    4682:	24 2b       	or	r18, r20
    4684:	20 83       	st	Z, r18
    4686:	ee 89       	ldd	r30, Y+22	; 0x16
    4688:	ff 89       	ldd	r31, Y+23	; 0x17
    468a:	40 81       	ld	r20, Z
    468c:	9c 01       	movw	r18, r24
    468e:	0e 8c       	ldd	r0, Y+30	; 0x1e
    4690:	02 c0       	rjmp	.+4      	; 0x4696 <_ZN14HardwareSerial5beginEm+0xd8>
    4692:	22 0f       	add	r18, r18
    4694:	33 1f       	adc	r19, r19
    4696:	0a 94       	dec	r0
    4698:	e2 f7       	brpl	.-8      	; 0x4692 <_ZN14HardwareSerial5beginEm+0xd4>
    469a:	24 2b       	or	r18, r20
    469c:	20 83       	st	Z, r18
    469e:	ee 89       	ldd	r30, Y+22	; 0x16
    46a0:	ff 89       	ldd	r31, Y+23	; 0x17
    46a2:	20 81       	ld	r18, Z
    46a4:	0f 8c       	ldd	r0, Y+31	; 0x1f
    46a6:	02 c0       	rjmp	.+4      	; 0x46ac <_ZN14HardwareSerial5beginEm+0xee>
    46a8:	88 0f       	add	r24, r24
    46aa:	99 1f       	adc	r25, r25
    46ac:	0a 94       	dec	r0
    46ae:	e2 f7       	brpl	.-8      	; 0x46a8 <_ZN14HardwareSerial5beginEm+0xea>
    46b0:	80 95       	com	r24
    46b2:	82 23       	and	r24, r18
    46b4:	80 83       	st	Z, r24
    46b6:	df 91       	pop	r29
    46b8:	cf 91       	pop	r28
    46ba:	ff 90       	pop	r15
    46bc:	ef 90       	pop	r14
    46be:	df 90       	pop	r13
    46c0:	cf 90       	pop	r12
    46c2:	08 95       	ret

000046c4 <_GLOBAL__sub_I_rx_buffer>:
    46c4:	5f 92       	push	r5
    46c6:	6f 92       	push	r6
    46c8:	7f 92       	push	r7
    46ca:	8f 92       	push	r8
    46cc:	9f 92       	push	r9
    46ce:	af 92       	push	r10
    46d0:	bf 92       	push	r11
    46d2:	cf 92       	push	r12
    46d4:	df 92       	push	r13
    46d6:	ef 92       	push	r14
    46d8:	ff 92       	push	r15
    46da:	0f 93       	push	r16
    46dc:	1f 93       	push	r17
    46de:	cf 93       	push	r28
    46e0:	df 93       	push	r29
    46e2:	55 24       	eor	r5, r5
    46e4:	53 94       	inc	r5
    46e6:	5f 92       	push	r5
    46e8:	0f 2e       	mov	r0, r31
    46ea:	f5 e0       	ldi	r31, 0x05	; 5
    46ec:	6f 2e       	mov	r6, r31
    46ee:	f0 2d       	mov	r31, r0
    46f0:	6f 92       	push	r6
    46f2:	0f 2e       	mov	r0, r31
    46f4:	f7 e0       	ldi	r31, 0x07	; 7
    46f6:	7f 2e       	mov	r7, r31
    46f8:	f0 2d       	mov	r31, r0
    46fa:	7f 92       	push	r7
    46fc:	d3 e0       	ldi	r29, 0x03	; 3
    46fe:	df 93       	push	r29
    4700:	c4 e0       	ldi	r28, 0x04	; 4
    4702:	cf 93       	push	r28
    4704:	0f 2e       	mov	r0, r31
    4706:	f6 ec       	ldi	r31, 0xC6	; 198
    4708:	8f 2e       	mov	r8, r31
    470a:	91 2c       	mov	r9, r1
    470c:	f0 2d       	mov	r31, r0
    470e:	0f 2e       	mov	r0, r31
    4710:	f2 ec       	ldi	r31, 0xC2	; 194
    4712:	af 2e       	mov	r10, r31
    4714:	b1 2c       	mov	r11, r1
    4716:	f0 2d       	mov	r31, r0
    4718:	0f 2e       	mov	r0, r31
    471a:	f1 ec       	ldi	r31, 0xC1	; 193
    471c:	cf 2e       	mov	r12, r31
    471e:	d1 2c       	mov	r13, r1
    4720:	f0 2d       	mov	r31, r0
    4722:	0f 2e       	mov	r0, r31
    4724:	f0 ec       	ldi	r31, 0xC0	; 192
    4726:	ef 2e       	mov	r14, r31
    4728:	f1 2c       	mov	r15, r1
    472a:	f0 2d       	mov	r31, r0
    472c:	04 ec       	ldi	r16, 0xC4	; 196
    472e:	10 e0       	ldi	r17, 0x00	; 0
    4730:	25 ec       	ldi	r18, 0xC5	; 197
    4732:	30 e0       	ldi	r19, 0x00	; 0
    4734:	45 e7       	ldi	r20, 0x75	; 117
    4736:	51 e1       	ldi	r21, 0x11	; 17
    4738:	69 eb       	ldi	r22, 0xB9	; 185
    473a:	71 e1       	ldi	r23, 0x11	; 17
    473c:	8b eb       	ldi	r24, 0xBB	; 187
    473e:	9f e0       	ldi	r25, 0x0F	; 15
    4740:	fa de       	rcall	.-524    	; 0x4536 <_ZN14HardwareSerialC1EP11ring_bufferS1_PVhS3_S3_S3_S3_S3_hhhhh>
    4742:	5f 92       	push	r5
    4744:	6f 92       	push	r6
    4746:	7f 92       	push	r7
    4748:	df 93       	push	r29
    474a:	cf 93       	push	r28
    474c:	0f 2e       	mov	r0, r31
    474e:	fe ec       	ldi	r31, 0xCE	; 206
    4750:	8f 2e       	mov	r8, r31
    4752:	91 2c       	mov	r9, r1
    4754:	f0 2d       	mov	r31, r0
    4756:	0f 2e       	mov	r0, r31
    4758:	fa ec       	ldi	r31, 0xCA	; 202
    475a:	af 2e       	mov	r10, r31
    475c:	b1 2c       	mov	r11, r1
    475e:	f0 2d       	mov	r31, r0
    4760:	0f 2e       	mov	r0, r31
    4762:	f9 ec       	ldi	r31, 0xC9	; 201
    4764:	cf 2e       	mov	r12, r31
    4766:	d1 2c       	mov	r13, r1
    4768:	f0 2d       	mov	r31, r0
    476a:	0f 2e       	mov	r0, r31
    476c:	f8 ec       	ldi	r31, 0xC8	; 200
    476e:	ef 2e       	mov	r14, r31
    4770:	f1 2c       	mov	r15, r1
    4772:	f0 2d       	mov	r31, r0
    4774:	0c ec       	ldi	r16, 0xCC	; 204
    4776:	10 e0       	ldi	r17, 0x00	; 0
    4778:	2d ec       	ldi	r18, 0xCD	; 205
    477a:	30 e0       	ldi	r19, 0x00	; 0
    477c:	4d ee       	ldi	r20, 0xED	; 237
    477e:	50 e1       	ldi	r21, 0x10	; 16
    4780:	61 e3       	ldi	r22, 0x31	; 49
    4782:	71 e1       	ldi	r23, 0x11	; 17
    4784:	89 e9       	ldi	r24, 0x99	; 153
    4786:	9f e0       	ldi	r25, 0x0F	; 15
    4788:	d6 de       	rcall	.-596    	; 0x4536 <_ZN14HardwareSerialC1EP11ring_bufferS1_PVhS3_S3_S3_S3_S3_hhhhh>
    478a:	5f 92       	push	r5
    478c:	6f 92       	push	r6
    478e:	7f 92       	push	r7
    4790:	df 93       	push	r29
    4792:	cf 93       	push	r28
    4794:	0f 2e       	mov	r0, r31
    4796:	f6 ed       	ldi	r31, 0xD6	; 214
    4798:	8f 2e       	mov	r8, r31
    479a:	91 2c       	mov	r9, r1
    479c:	f0 2d       	mov	r31, r0
    479e:	0f 2e       	mov	r0, r31
    47a0:	f2 ed       	ldi	r31, 0xD2	; 210
    47a2:	af 2e       	mov	r10, r31
    47a4:	b1 2c       	mov	r11, r1
    47a6:	f0 2d       	mov	r31, r0
    47a8:	0f 2e       	mov	r0, r31
    47aa:	f1 ed       	ldi	r31, 0xD1	; 209
    47ac:	cf 2e       	mov	r12, r31
    47ae:	d1 2c       	mov	r13, r1
    47b0:	f0 2d       	mov	r31, r0
    47b2:	0f 2e       	mov	r0, r31
    47b4:	f0 ed       	ldi	r31, 0xD0	; 208
    47b6:	ef 2e       	mov	r14, r31
    47b8:	f1 2c       	mov	r15, r1
    47ba:	f0 2d       	mov	r31, r0
    47bc:	04 ed       	ldi	r16, 0xD4	; 212
    47be:	10 e0       	ldi	r17, 0x00	; 0
    47c0:	25 ed       	ldi	r18, 0xD5	; 213
    47c2:	30 e0       	ldi	r19, 0x00	; 0
    47c4:	45 e6       	ldi	r20, 0x65	; 101
    47c6:	50 e1       	ldi	r21, 0x10	; 16
    47c8:	69 ea       	ldi	r22, 0xA9	; 169
    47ca:	70 e1       	ldi	r23, 0x10	; 16
    47cc:	87 e7       	ldi	r24, 0x77	; 119
    47ce:	9f e0       	ldi	r25, 0x0F	; 15
    47d0:	b2 de       	rcall	.-668    	; 0x4536 <_ZN14HardwareSerialC1EP11ring_bufferS1_PVhS3_S3_S3_S3_S3_hhhhh>
    47d2:	5f 92       	push	r5
    47d4:	6f 92       	push	r6
    47d6:	7f 92       	push	r7
    47d8:	df 93       	push	r29
    47da:	cf 93       	push	r28
    47dc:	0f 2e       	mov	r0, r31
    47de:	f6 e3       	ldi	r31, 0x36	; 54
    47e0:	8f 2e       	mov	r8, r31
    47e2:	99 24       	eor	r9, r9
    47e4:	93 94       	inc	r9
    47e6:	f0 2d       	mov	r31, r0
    47e8:	0f 2e       	mov	r0, r31
    47ea:	f2 e3       	ldi	r31, 0x32	; 50
    47ec:	af 2e       	mov	r10, r31
    47ee:	bb 24       	eor	r11, r11
    47f0:	b3 94       	inc	r11
    47f2:	f0 2d       	mov	r31, r0
    47f4:	0f 2e       	mov	r0, r31
    47f6:	f1 e3       	ldi	r31, 0x31	; 49
    47f8:	cf 2e       	mov	r12, r31
    47fa:	dd 24       	eor	r13, r13
    47fc:	d3 94       	inc	r13
    47fe:	f0 2d       	mov	r31, r0
    4800:	0f 2e       	mov	r0, r31
    4802:	f0 e3       	ldi	r31, 0x30	; 48
    4804:	ef 2e       	mov	r14, r31
    4806:	ff 24       	eor	r15, r15
    4808:	f3 94       	inc	r15
    480a:	f0 2d       	mov	r31, r0
    480c:	04 e3       	ldi	r16, 0x34	; 52
    480e:	11 e0       	ldi	r17, 0x01	; 1
    4810:	25 e3       	ldi	r18, 0x35	; 53
    4812:	31 e0       	ldi	r19, 0x01	; 1
    4814:	4d ed       	ldi	r20, 0xDD	; 221
    4816:	5f e0       	ldi	r21, 0x0F	; 15
    4818:	61 e2       	ldi	r22, 0x21	; 33
    481a:	70 e1       	ldi	r23, 0x10	; 16
    481c:	85 e5       	ldi	r24, 0x55	; 85
    481e:	9f e0       	ldi	r25, 0x0F	; 15
    4820:	8a de       	rcall	.-748    	; 0x4536 <_ZN14HardwareSerialC1EP11ring_bufferS1_PVhS3_S3_S3_S3_S3_hhhhh>
    4822:	8d b7       	in	r24, 0x3d	; 61
    4824:	9e b7       	in	r25, 0x3e	; 62
    4826:	44 96       	adiw	r24, 0x14	; 20
    4828:	0f b6       	in	r0, 0x3f	; 63
    482a:	f8 94       	cli
    482c:	9e bf       	out	0x3e, r25	; 62
    482e:	0f be       	out	0x3f, r0	; 63
    4830:	8d bf       	out	0x3d, r24	; 61
    4832:	df 91       	pop	r29
    4834:	cf 91       	pop	r28
    4836:	1f 91       	pop	r17
    4838:	0f 91       	pop	r16
    483a:	ff 90       	pop	r15
    483c:	ef 90       	pop	r14
    483e:	df 90       	pop	r13
    4840:	cf 90       	pop	r12
    4842:	bf 90       	pop	r11
    4844:	af 90       	pop	r10
    4846:	9f 90       	pop	r9
    4848:	8f 90       	pop	r8
    484a:	7f 90       	pop	r7
    484c:	6f 90       	pop	r6
    484e:	5f 90       	pop	r5
    4850:	08 95       	ret

00004852 <_ZN5Print5writeEPKhj>:
    4852:	cf 92       	push	r12
    4854:	df 92       	push	r13
    4856:	ef 92       	push	r14
    4858:	ff 92       	push	r15
    485a:	0f 93       	push	r16
    485c:	1f 93       	push	r17
    485e:	cf 93       	push	r28
    4860:	df 93       	push	r29
    4862:	6c 01       	movw	r12, r24
    4864:	41 15       	cp	r20, r1
    4866:	51 05       	cpc	r21, r1
    4868:	b1 f0       	breq	.+44     	; 0x4896 <_ZN5Print5writeEPKhj+0x44>
    486a:	06 2f       	mov	r16, r22
    486c:	17 2f       	mov	r17, r23
    486e:	ea 01       	movw	r28, r20
    4870:	e1 2c       	mov	r14, r1
    4872:	f1 2c       	mov	r15, r1
    4874:	d8 01       	movw	r26, r16
    4876:	6d 91       	ld	r22, X+
    4878:	8d 01       	movw	r16, r26
    487a:	d6 01       	movw	r26, r12
    487c:	ed 91       	ld	r30, X+
    487e:	fc 91       	ld	r31, X
    4880:	01 90       	ld	r0, Z+
    4882:	f0 81       	ld	r31, Z
    4884:	e0 2d       	mov	r30, r0
    4886:	c6 01       	movw	r24, r12
    4888:	19 95       	eicall
    488a:	e8 0e       	add	r14, r24
    488c:	f9 1e       	adc	r15, r25
    488e:	21 97       	sbiw	r28, 0x01	; 1
    4890:	20 97       	sbiw	r28, 0x00	; 0
    4892:	81 f7       	brne	.-32     	; 0x4874 <_ZN5Print5writeEPKhj+0x22>
    4894:	02 c0       	rjmp	.+4      	; 0x489a <_ZN5Print5writeEPKhj+0x48>
    4896:	e1 2c       	mov	r14, r1
    4898:	f1 2c       	mov	r15, r1
    489a:	c7 01       	movw	r24, r14
    489c:	df 91       	pop	r29
    489e:	cf 91       	pop	r28
    48a0:	1f 91       	pop	r17
    48a2:	0f 91       	pop	r16
    48a4:	ff 90       	pop	r15
    48a6:	ef 90       	pop	r14
    48a8:	df 90       	pop	r13
    48aa:	cf 90       	pop	r12
    48ac:	08 95       	ret

000048ae <_ZN5Print5printEPKc>:
    48ae:	61 15       	cp	r22, r1
    48b0:	71 05       	cpc	r23, r1
    48b2:	81 f0       	breq	.+32     	; 0x48d4 <_ZN5Print5printEPKc+0x26>
    48b4:	fb 01       	movw	r30, r22
    48b6:	01 90       	ld	r0, Z+
    48b8:	00 20       	and	r0, r0
    48ba:	e9 f7       	brne	.-6      	; 0x48b6 <_ZN5Print5printEPKc+0x8>
    48bc:	31 97       	sbiw	r30, 0x01	; 1
    48be:	af 01       	movw	r20, r30
    48c0:	46 1b       	sub	r20, r22
    48c2:	57 0b       	sbc	r21, r23
    48c4:	dc 01       	movw	r26, r24
    48c6:	ed 91       	ld	r30, X+
    48c8:	fc 91       	ld	r31, X
    48ca:	02 80       	ldd	r0, Z+2	; 0x02
    48cc:	f3 81       	ldd	r31, Z+3	; 0x03
    48ce:	e0 2d       	mov	r30, r0
    48d0:	19 95       	eicall
    48d2:	08 95       	ret
    48d4:	80 e0       	ldi	r24, 0x00	; 0
    48d6:	90 e0       	ldi	r25, 0x00	; 0
    48d8:	08 95       	ret

000048da <_ZN5Print5printEc>:
    48da:	dc 01       	movw	r26, r24
    48dc:	ed 91       	ld	r30, X+
    48de:	fc 91       	ld	r31, X
    48e0:	01 90       	ld	r0, Z+
    48e2:	f0 81       	ld	r31, Z
    48e4:	e0 2d       	mov	r30, r0
    48e6:	19 95       	eicall
    48e8:	08 95       	ret

000048ea <_ZN5Print7printlnEv>:
    48ea:	0f 93       	push	r16
    48ec:	1f 93       	push	r17
    48ee:	cf 93       	push	r28
    48f0:	df 93       	push	r29
    48f2:	ec 01       	movw	r28, r24
    48f4:	6d e0       	ldi	r22, 0x0D	; 13
    48f6:	f1 df       	rcall	.-30     	; 0x48da <_ZN5Print5printEc>
    48f8:	8c 01       	movw	r16, r24
    48fa:	6a e0       	ldi	r22, 0x0A	; 10
    48fc:	ce 01       	movw	r24, r28
    48fe:	ed df       	rcall	.-38     	; 0x48da <_ZN5Print5printEc>
    4900:	80 0f       	add	r24, r16
    4902:	91 1f       	adc	r25, r17
    4904:	df 91       	pop	r29
    4906:	cf 91       	pop	r28
    4908:	1f 91       	pop	r17
    490a:	0f 91       	pop	r16
    490c:	08 95       	ret

0000490e <_ZN5Print7printlnEPKc>:
    490e:	0f 93       	push	r16
    4910:	1f 93       	push	r17
    4912:	cf 93       	push	r28
    4914:	df 93       	push	r29
    4916:	ec 01       	movw	r28, r24
    4918:	ca df       	rcall	.-108    	; 0x48ae <_ZN5Print5printEPKc>
    491a:	8c 01       	movw	r16, r24
    491c:	ce 01       	movw	r24, r28
    491e:	e5 df       	rcall	.-54     	; 0x48ea <_ZN5Print7printlnEv>
    4920:	80 0f       	add	r24, r16
    4922:	91 1f       	adc	r25, r17
    4924:	df 91       	pop	r29
    4926:	cf 91       	pop	r28
    4928:	1f 91       	pop	r17
    492a:	0f 91       	pop	r16
    492c:	08 95       	ret

0000492e <__vector_23>:
    492e:	1f 92       	push	r1
    4930:	0f 92       	push	r0
    4932:	0f b6       	in	r0, 0x3f	; 63
    4934:	0f 92       	push	r0
    4936:	11 24       	eor	r1, r1
    4938:	2f 93       	push	r18
    493a:	3f 93       	push	r19
    493c:	8f 93       	push	r24
    493e:	9f 93       	push	r25
    4940:	af 93       	push	r26
    4942:	bf 93       	push	r27
    4944:	80 91 fe 11 	lds	r24, 0x11FE
    4948:	90 91 ff 11 	lds	r25, 0x11FF
    494c:	a0 91 00 12 	lds	r26, 0x1200
    4950:	b0 91 01 12 	lds	r27, 0x1201
    4954:	30 91 fd 11 	lds	r19, 0x11FD
    4958:	23 e0       	ldi	r18, 0x03	; 3
    495a:	23 0f       	add	r18, r19
    495c:	2d 37       	cpi	r18, 0x7D	; 125
    495e:	20 f4       	brcc	.+8      	; 0x4968 <__vector_23+0x3a>
    4960:	01 96       	adiw	r24, 0x01	; 1
    4962:	a1 1d       	adc	r26, r1
    4964:	b1 1d       	adc	r27, r1
    4966:	05 c0       	rjmp	.+10     	; 0x4972 <__vector_23+0x44>
    4968:	26 e8       	ldi	r18, 0x86	; 134
    496a:	23 0f       	add	r18, r19
    496c:	02 96       	adiw	r24, 0x02	; 2
    496e:	a1 1d       	adc	r26, r1
    4970:	b1 1d       	adc	r27, r1
    4972:	20 93 fd 11 	sts	0x11FD, r18
    4976:	80 93 fe 11 	sts	0x11FE, r24
    497a:	90 93 ff 11 	sts	0x11FF, r25
    497e:	a0 93 00 12 	sts	0x1200, r26
    4982:	b0 93 01 12 	sts	0x1201, r27
    4986:	80 91 02 12 	lds	r24, 0x1202
    498a:	90 91 03 12 	lds	r25, 0x1203
    498e:	a0 91 04 12 	lds	r26, 0x1204
    4992:	b0 91 05 12 	lds	r27, 0x1205
    4996:	01 96       	adiw	r24, 0x01	; 1
    4998:	a1 1d       	adc	r26, r1
    499a:	b1 1d       	adc	r27, r1
    499c:	80 93 02 12 	sts	0x1202, r24
    49a0:	90 93 03 12 	sts	0x1203, r25
    49a4:	a0 93 04 12 	sts	0x1204, r26
    49a8:	b0 93 05 12 	sts	0x1205, r27
    49ac:	bf 91       	pop	r27
    49ae:	af 91       	pop	r26
    49b0:	9f 91       	pop	r25
    49b2:	8f 91       	pop	r24
    49b4:	3f 91       	pop	r19
    49b6:	2f 91       	pop	r18
    49b8:	0f 90       	pop	r0
    49ba:	0f be       	out	0x3f, r0	; 63
    49bc:	0f 90       	pop	r0
    49be:	1f 90       	pop	r1
    49c0:	18 95       	reti

000049c2 <millis>:
    49c2:	2f b7       	in	r18, 0x3f	; 63
    49c4:	f8 94       	cli
    49c6:	60 91 fe 11 	lds	r22, 0x11FE
    49ca:	70 91 ff 11 	lds	r23, 0x11FF
    49ce:	80 91 00 12 	lds	r24, 0x1200
    49d2:	90 91 01 12 	lds	r25, 0x1201
    49d6:	2f bf       	out	0x3f, r18	; 63
    49d8:	08 95       	ret

000049da <micros>:
    49da:	3f b7       	in	r19, 0x3f	; 63
    49dc:	f8 94       	cli
    49de:	80 91 02 12 	lds	r24, 0x1202
    49e2:	90 91 03 12 	lds	r25, 0x1203
    49e6:	a0 91 04 12 	lds	r26, 0x1204
    49ea:	b0 91 05 12 	lds	r27, 0x1205
    49ee:	26 b5       	in	r18, 0x26	; 38
    49f0:	a8 9b       	sbis	0x15, 0	; 21
    49f2:	05 c0       	rjmp	.+10     	; 0x49fe <micros+0x24>
    49f4:	2f 3f       	cpi	r18, 0xFF	; 255
    49f6:	19 f0       	breq	.+6      	; 0x49fe <micros+0x24>
    49f8:	01 96       	adiw	r24, 0x01	; 1
    49fa:	a1 1d       	adc	r26, r1
    49fc:	b1 1d       	adc	r27, r1
    49fe:	3f bf       	out	0x3f, r19	; 63
    4a00:	ba 2f       	mov	r27, r26
    4a02:	a9 2f       	mov	r26, r25
    4a04:	98 2f       	mov	r25, r24
    4a06:	88 27       	eor	r24, r24
    4a08:	82 0f       	add	r24, r18
    4a0a:	91 1d       	adc	r25, r1
    4a0c:	a1 1d       	adc	r26, r1
    4a0e:	b1 1d       	adc	r27, r1
    4a10:	bc 01       	movw	r22, r24
    4a12:	cd 01       	movw	r24, r26
    4a14:	66 0f       	add	r22, r22
    4a16:	77 1f       	adc	r23, r23
    4a18:	88 1f       	adc	r24, r24
    4a1a:	99 1f       	adc	r25, r25
    4a1c:	66 0f       	add	r22, r22
    4a1e:	77 1f       	adc	r23, r23
    4a20:	88 1f       	adc	r24, r24
    4a22:	99 1f       	adc	r25, r25
    4a24:	08 95       	ret

00004a26 <delay>:
    4a26:	cf 92       	push	r12
    4a28:	df 92       	push	r13
    4a2a:	ef 92       	push	r14
    4a2c:	ff 92       	push	r15
    4a2e:	cf 93       	push	r28
    4a30:	df 93       	push	r29
    4a32:	6b 01       	movw	r12, r22
    4a34:	7c 01       	movw	r14, r24
    4a36:	d1 df       	rcall	.-94     	; 0x49da <micros>
    4a38:	eb 01       	movw	r28, r22
    4a3a:	c1 14       	cp	r12, r1
    4a3c:	d1 04       	cpc	r13, r1
    4a3e:	e1 04       	cpc	r14, r1
    4a40:	f1 04       	cpc	r15, r1
    4a42:	91 f0       	breq	.+36     	; 0x4a68 <delay+0x42>
    4a44:	ca df       	rcall	.-108    	; 0x49da <micros>
    4a46:	6c 1b       	sub	r22, r28
    4a48:	7d 0b       	sbc	r23, r29
    4a4a:	68 3e       	cpi	r22, 0xE8	; 232
    4a4c:	73 40       	sbci	r23, 0x03	; 3
    4a4e:	38 f0       	brcs	.+14     	; 0x4a5e <delay+0x38>
    4a50:	81 e0       	ldi	r24, 0x01	; 1
    4a52:	c8 1a       	sub	r12, r24
    4a54:	d1 08       	sbc	r13, r1
    4a56:	e1 08       	sbc	r14, r1
    4a58:	f1 08       	sbc	r15, r1
    4a5a:	c8 51       	subi	r28, 0x18	; 24
    4a5c:	dc 4f       	sbci	r29, 0xFC	; 252
    4a5e:	c1 14       	cp	r12, r1
    4a60:	d1 04       	cpc	r13, r1
    4a62:	e1 04       	cpc	r14, r1
    4a64:	f1 04       	cpc	r15, r1
    4a66:	71 f7       	brne	.-36     	; 0x4a44 <delay+0x1e>
    4a68:	df 91       	pop	r29
    4a6a:	cf 91       	pop	r28
    4a6c:	ff 90       	pop	r15
    4a6e:	ef 90       	pop	r14
    4a70:	df 90       	pop	r13
    4a72:	cf 90       	pop	r12
    4a74:	08 95       	ret

00004a76 <init>:
    4a76:	78 94       	sei
    4a78:	84 b5       	in	r24, 0x24	; 36
    4a7a:	82 60       	ori	r24, 0x02	; 2
    4a7c:	84 bd       	out	0x24, r24	; 36
    4a7e:	84 b5       	in	r24, 0x24	; 36
    4a80:	81 60       	ori	r24, 0x01	; 1
    4a82:	84 bd       	out	0x24, r24	; 36
    4a84:	85 b5       	in	r24, 0x25	; 37
    4a86:	82 60       	ori	r24, 0x02	; 2
    4a88:	85 bd       	out	0x25, r24	; 37
    4a8a:	85 b5       	in	r24, 0x25	; 37
    4a8c:	81 60       	ori	r24, 0x01	; 1
    4a8e:	85 bd       	out	0x25, r24	; 37
    4a90:	ee e6       	ldi	r30, 0x6E	; 110
    4a92:	f0 e0       	ldi	r31, 0x00	; 0
    4a94:	80 81       	ld	r24, Z
    4a96:	81 60       	ori	r24, 0x01	; 1
    4a98:	80 83       	st	Z, r24
    4a9a:	e1 e8       	ldi	r30, 0x81	; 129
    4a9c:	f0 e0       	ldi	r31, 0x00	; 0
    4a9e:	10 82       	st	Z, r1
    4aa0:	80 81       	ld	r24, Z
    4aa2:	82 60       	ori	r24, 0x02	; 2
    4aa4:	80 83       	st	Z, r24
    4aa6:	80 81       	ld	r24, Z
    4aa8:	81 60       	ori	r24, 0x01	; 1
    4aaa:	80 83       	st	Z, r24
    4aac:	e0 e8       	ldi	r30, 0x80	; 128
    4aae:	f0 e0       	ldi	r31, 0x00	; 0
    4ab0:	80 81       	ld	r24, Z
    4ab2:	81 60       	ori	r24, 0x01	; 1
    4ab4:	80 83       	st	Z, r24
    4ab6:	e1 eb       	ldi	r30, 0xB1	; 177
    4ab8:	f0 e0       	ldi	r31, 0x00	; 0
    4aba:	80 81       	ld	r24, Z
    4abc:	84 60       	ori	r24, 0x04	; 4
    4abe:	80 83       	st	Z, r24
    4ac0:	e0 eb       	ldi	r30, 0xB0	; 176
    4ac2:	f0 e0       	ldi	r31, 0x00	; 0
    4ac4:	80 81       	ld	r24, Z
    4ac6:	81 60       	ori	r24, 0x01	; 1
    4ac8:	80 83       	st	Z, r24
    4aca:	e1 e9       	ldi	r30, 0x91	; 145
    4acc:	f0 e0       	ldi	r31, 0x00	; 0
    4ace:	80 81       	ld	r24, Z
    4ad0:	82 60       	ori	r24, 0x02	; 2
    4ad2:	80 83       	st	Z, r24
    4ad4:	80 81       	ld	r24, Z
    4ad6:	81 60       	ori	r24, 0x01	; 1
    4ad8:	80 83       	st	Z, r24
    4ada:	e0 e9       	ldi	r30, 0x90	; 144
    4adc:	f0 e0       	ldi	r31, 0x00	; 0
    4ade:	80 81       	ld	r24, Z
    4ae0:	81 60       	ori	r24, 0x01	; 1
    4ae2:	80 83       	st	Z, r24
    4ae4:	e1 ea       	ldi	r30, 0xA1	; 161
    4ae6:	f0 e0       	ldi	r31, 0x00	; 0
    4ae8:	80 81       	ld	r24, Z
    4aea:	82 60       	ori	r24, 0x02	; 2
    4aec:	80 83       	st	Z, r24
    4aee:	80 81       	ld	r24, Z
    4af0:	81 60       	ori	r24, 0x01	; 1
    4af2:	80 83       	st	Z, r24
    4af4:	e0 ea       	ldi	r30, 0xA0	; 160
    4af6:	f0 e0       	ldi	r31, 0x00	; 0
    4af8:	80 81       	ld	r24, Z
    4afa:	81 60       	ori	r24, 0x01	; 1
    4afc:	80 83       	st	Z, r24
    4afe:	e1 e2       	ldi	r30, 0x21	; 33
    4b00:	f1 e0       	ldi	r31, 0x01	; 1
    4b02:	80 81       	ld	r24, Z
    4b04:	82 60       	ori	r24, 0x02	; 2
    4b06:	80 83       	st	Z, r24
    4b08:	80 81       	ld	r24, Z
    4b0a:	81 60       	ori	r24, 0x01	; 1
    4b0c:	80 83       	st	Z, r24
    4b0e:	e0 e2       	ldi	r30, 0x20	; 32
    4b10:	f1 e0       	ldi	r31, 0x01	; 1
    4b12:	80 81       	ld	r24, Z
    4b14:	81 60       	ori	r24, 0x01	; 1
    4b16:	80 83       	st	Z, r24
    4b18:	ea e7       	ldi	r30, 0x7A	; 122
    4b1a:	f0 e0       	ldi	r31, 0x00	; 0
    4b1c:	80 81       	ld	r24, Z
    4b1e:	84 60       	ori	r24, 0x04	; 4
    4b20:	80 83       	st	Z, r24
    4b22:	80 81       	ld	r24, Z
    4b24:	82 60       	ori	r24, 0x02	; 2
    4b26:	80 83       	st	Z, r24
    4b28:	80 81       	ld	r24, Z
    4b2a:	81 60       	ori	r24, 0x01	; 1
    4b2c:	80 83       	st	Z, r24
    4b2e:	80 81       	ld	r24, Z
    4b30:	80 68       	ori	r24, 0x80	; 128
    4b32:	80 83       	st	Z, r24
    4b34:	10 92 c1 00 	sts	0x00C1, r1
    4b38:	08 95       	ret

00004b3a <analogRead>:
    4b3a:	86 33       	cpi	r24, 0x36	; 54
    4b3c:	08 f0       	brcs	.+2      	; 0x4b40 <analogRead+0x6>
    4b3e:	86 53       	subi	r24, 0x36	; 54
    4b40:	eb e7       	ldi	r30, 0x7B	; 123
    4b42:	f0 e0       	ldi	r31, 0x00	; 0
    4b44:	90 81       	ld	r25, Z
    4b46:	28 2f       	mov	r18, r24
    4b48:	28 70       	andi	r18, 0x08	; 8
    4b4a:	97 7f       	andi	r25, 0xF7	; 247
    4b4c:	92 2b       	or	r25, r18
    4b4e:	90 83       	st	Z, r25
    4b50:	87 70       	andi	r24, 0x07	; 7
    4b52:	20 91 60 02 	lds	r18, 0x0260
    4b56:	90 e4       	ldi	r25, 0x40	; 64
    4b58:	29 9f       	mul	r18, r25
    4b5a:	90 01       	movw	r18, r0
    4b5c:	11 24       	eor	r1, r1
    4b5e:	28 2b       	or	r18, r24
    4b60:	20 93 7c 00 	sts	0x007C, r18
    4b64:	ea e7       	ldi	r30, 0x7A	; 122
    4b66:	f0 e0       	ldi	r31, 0x00	; 0
    4b68:	80 81       	ld	r24, Z
    4b6a:	80 64       	ori	r24, 0x40	; 64
    4b6c:	80 83       	st	Z, r24
    4b6e:	80 81       	ld	r24, Z
    4b70:	86 fd       	sbrc	r24, 6
    4b72:	fd cf       	rjmp	.-6      	; 0x4b6e <analogRead+0x34>
    4b74:	80 91 78 00 	lds	r24, 0x0078
    4b78:	20 91 79 00 	lds	r18, 0x0079
    4b7c:	90 e0       	ldi	r25, 0x00	; 0
    4b7e:	92 2b       	or	r25, r18
    4b80:	08 95       	ret

00004b82 <turnOffPWM>:
    4b82:	90 e0       	ldi	r25, 0x00	; 0
    4b84:	fc 01       	movw	r30, r24
    4b86:	31 97       	sbiw	r30, 0x01	; 1
    4b88:	e1 31       	cpi	r30, 0x11	; 17
    4b8a:	f1 05       	cpc	r31, r1
    4b8c:	08 f0       	brcs	.+2      	; 0x4b90 <turnOffPWM+0xe>
    4b8e:	58 c0       	rjmp	.+176    	; 0x4c40 <turnOffPWM+0xbe>
    4b90:	e9 50       	subi	r30, 0x09	; 9
    4b92:	ff 4f       	sbci	r31, 0xFF	; 255
    4b94:	11 c1       	rjmp	.+546    	; 0x4db8 <__tablejump2__>
    4b96:	e0 e8       	ldi	r30, 0x80	; 128
    4b98:	f0 e0       	ldi	r31, 0x00	; 0
    4b9a:	80 81       	ld	r24, Z
    4b9c:	8f 77       	andi	r24, 0x7F	; 127
    4b9e:	80 83       	st	Z, r24
    4ba0:	08 95       	ret
    4ba2:	e0 e8       	ldi	r30, 0x80	; 128
    4ba4:	f0 e0       	ldi	r31, 0x00	; 0
    4ba6:	80 81       	ld	r24, Z
    4ba8:	8f 7d       	andi	r24, 0xDF	; 223
    4baa:	80 83       	st	Z, r24
    4bac:	08 95       	ret
    4bae:	84 b5       	in	r24, 0x24	; 36
    4bb0:	8f 77       	andi	r24, 0x7F	; 127
    4bb2:	84 bd       	out	0x24, r24	; 36
    4bb4:	08 95       	ret
    4bb6:	84 b5       	in	r24, 0x24	; 36
    4bb8:	8f 7d       	andi	r24, 0xDF	; 223
    4bba:	84 bd       	out	0x24, r24	; 36
    4bbc:	08 95       	ret
    4bbe:	e0 eb       	ldi	r30, 0xB0	; 176
    4bc0:	f0 e0       	ldi	r31, 0x00	; 0
    4bc2:	80 81       	ld	r24, Z
    4bc4:	8f 77       	andi	r24, 0x7F	; 127
    4bc6:	80 83       	st	Z, r24
    4bc8:	08 95       	ret
    4bca:	e0 eb       	ldi	r30, 0xB0	; 176
    4bcc:	f0 e0       	ldi	r31, 0x00	; 0
    4bce:	80 81       	ld	r24, Z
    4bd0:	8f 7d       	andi	r24, 0xDF	; 223
    4bd2:	80 83       	st	Z, r24
    4bd4:	08 95       	ret
    4bd6:	e0 e9       	ldi	r30, 0x90	; 144
    4bd8:	f0 e0       	ldi	r31, 0x00	; 0
    4bda:	80 81       	ld	r24, Z
    4bdc:	8f 77       	andi	r24, 0x7F	; 127
    4bde:	80 83       	st	Z, r24
    4be0:	08 95       	ret
    4be2:	e0 e9       	ldi	r30, 0x90	; 144
    4be4:	f0 e0       	ldi	r31, 0x00	; 0
    4be6:	80 81       	ld	r24, Z
    4be8:	8f 7d       	andi	r24, 0xDF	; 223
    4bea:	80 83       	st	Z, r24
    4bec:	08 95       	ret
    4bee:	e0 e9       	ldi	r30, 0x90	; 144
    4bf0:	f0 e0       	ldi	r31, 0x00	; 0
    4bf2:	80 81       	ld	r24, Z
    4bf4:	87 7f       	andi	r24, 0xF7	; 247
    4bf6:	80 83       	st	Z, r24
    4bf8:	08 95       	ret
    4bfa:	e0 ea       	ldi	r30, 0xA0	; 160
    4bfc:	f0 e0       	ldi	r31, 0x00	; 0
    4bfe:	80 81       	ld	r24, Z
    4c00:	8f 77       	andi	r24, 0x7F	; 127
    4c02:	80 83       	st	Z, r24
    4c04:	08 95       	ret
    4c06:	e0 ea       	ldi	r30, 0xA0	; 160
    4c08:	f0 e0       	ldi	r31, 0x00	; 0
    4c0a:	80 81       	ld	r24, Z
    4c0c:	8f 7d       	andi	r24, 0xDF	; 223
    4c0e:	80 83       	st	Z, r24
    4c10:	08 95       	ret
    4c12:	e0 ea       	ldi	r30, 0xA0	; 160
    4c14:	f0 e0       	ldi	r31, 0x00	; 0
    4c16:	80 81       	ld	r24, Z
    4c18:	87 7f       	andi	r24, 0xF7	; 247
    4c1a:	80 83       	st	Z, r24
    4c1c:	08 95       	ret
    4c1e:	e0 e2       	ldi	r30, 0x20	; 32
    4c20:	f1 e0       	ldi	r31, 0x01	; 1
    4c22:	80 81       	ld	r24, Z
    4c24:	8f 77       	andi	r24, 0x7F	; 127
    4c26:	80 83       	st	Z, r24
    4c28:	08 95       	ret
    4c2a:	e0 e2       	ldi	r30, 0x20	; 32
    4c2c:	f1 e0       	ldi	r31, 0x01	; 1
    4c2e:	80 81       	ld	r24, Z
    4c30:	8f 7d       	andi	r24, 0xDF	; 223
    4c32:	80 83       	st	Z, r24
    4c34:	08 95       	ret
    4c36:	e0 e2       	ldi	r30, 0x20	; 32
    4c38:	f1 e0       	ldi	r31, 0x01	; 1
    4c3a:	80 81       	ld	r24, Z
    4c3c:	87 7f       	andi	r24, 0xF7	; 247
    4c3e:	80 83       	st	Z, r24
    4c40:	08 95       	ret

00004c42 <pinMode>:
    4c42:	cf 93       	push	r28
    4c44:	df 93       	push	r29
    4c46:	90 e0       	ldi	r25, 0x00	; 0
    4c48:	fc 01       	movw	r30, r24
    4c4a:	ea 5a       	subi	r30, 0xAA	; 170
    4c4c:	fd 4f       	sbci	r31, 0xFD	; 253
    4c4e:	24 91       	lpm	r18, Z
    4c50:	fc 01       	movw	r30, r24
    4c52:	e4 56       	subi	r30, 0x64	; 100
    4c54:	fd 4f       	sbci	r31, 0xFD	; 253
    4c56:	84 91       	lpm	r24, Z
    4c58:	88 23       	and	r24, r24
    4c5a:	71 f1       	breq	.+92     	; 0x4cb8 <pinMode+0x76>
    4c5c:	90 e0       	ldi	r25, 0x00	; 0
    4c5e:	88 0f       	add	r24, r24
    4c60:	99 1f       	adc	r25, r25
    4c62:	fc 01       	movw	r30, r24
    4c64:	ea 5e       	subi	r30, 0xEA	; 234
    4c66:	fc 4f       	sbci	r31, 0xFC	; 252
    4c68:	a5 91       	lpm	r26, Z+
    4c6a:	b4 91       	lpm	r27, Z
    4c6c:	84 50       	subi	r24, 0x04	; 4
    4c6e:	9d 4f       	sbci	r25, 0xFD	; 253
    4c70:	fc 01       	movw	r30, r24
    4c72:	c5 91       	lpm	r28, Z+
    4c74:	d4 91       	lpm	r29, Z
    4c76:	61 11       	cpse	r22, r1
    4c78:	0b c0       	rjmp	.+22     	; 0x4c90 <pinMode+0x4e>
    4c7a:	8f b7       	in	r24, 0x3f	; 63
    4c7c:	f8 94       	cli
    4c7e:	9c 91       	ld	r25, X
    4c80:	20 95       	com	r18
    4c82:	92 23       	and	r25, r18
    4c84:	9c 93       	st	X, r25
    4c86:	e8 81       	ld	r30, Y
    4c88:	2e 23       	and	r18, r30
    4c8a:	28 83       	st	Y, r18
    4c8c:	8f bf       	out	0x3f, r24	; 63
    4c8e:	14 c0       	rjmp	.+40     	; 0x4cb8 <pinMode+0x76>
    4c90:	62 30       	cpi	r22, 0x02	; 2
    4c92:	61 f4       	brne	.+24     	; 0x4cac <pinMode+0x6a>
    4c94:	8f b7       	in	r24, 0x3f	; 63
    4c96:	f8 94       	cli
    4c98:	3c 91       	ld	r19, X
    4c9a:	92 2f       	mov	r25, r18
    4c9c:	90 95       	com	r25
    4c9e:	93 23       	and	r25, r19
    4ca0:	9c 93       	st	X, r25
    4ca2:	e8 81       	ld	r30, Y
    4ca4:	2e 2b       	or	r18, r30
    4ca6:	28 83       	st	Y, r18
    4ca8:	8f bf       	out	0x3f, r24	; 63
    4caa:	06 c0       	rjmp	.+12     	; 0x4cb8 <pinMode+0x76>
    4cac:	8f b7       	in	r24, 0x3f	; 63
    4cae:	f8 94       	cli
    4cb0:	ec 91       	ld	r30, X
    4cb2:	2e 2b       	or	r18, r30
    4cb4:	2c 93       	st	X, r18
    4cb6:	8f bf       	out	0x3f, r24	; 63
    4cb8:	df 91       	pop	r29
    4cba:	cf 91       	pop	r28
    4cbc:	08 95       	ret

00004cbe <digitalWrite>:
    4cbe:	1f 93       	push	r17
    4cc0:	cf 93       	push	r28
    4cc2:	df 93       	push	r29
    4cc4:	c6 2f       	mov	r28, r22
    4cc6:	28 2f       	mov	r18, r24
    4cc8:	30 e0       	ldi	r19, 0x00	; 0
    4cca:	f9 01       	movw	r30, r18
    4ccc:	e0 5f       	subi	r30, 0xF0	; 240
    4cce:	fd 4f       	sbci	r31, 0xFD	; 253
    4cd0:	84 91       	lpm	r24, Z
    4cd2:	f9 01       	movw	r30, r18
    4cd4:	ea 5a       	subi	r30, 0xAA	; 170
    4cd6:	fd 4f       	sbci	r31, 0xFD	; 253
    4cd8:	14 91       	lpm	r17, Z
    4cda:	f9 01       	movw	r30, r18
    4cdc:	e4 56       	subi	r30, 0x64	; 100
    4cde:	fd 4f       	sbci	r31, 0xFD	; 253
    4ce0:	d4 91       	lpm	r29, Z
    4ce2:	dd 23       	and	r29, r29
    4ce4:	c1 f0       	breq	.+48     	; 0x4d16 <digitalWrite+0x58>
    4ce6:	81 11       	cpse	r24, r1
    4ce8:	4c df       	rcall	.-360    	; 0x4b82 <turnOffPWM>
    4cea:	2d 2f       	mov	r18, r29
    4cec:	30 e0       	ldi	r19, 0x00	; 0
    4cee:	f9 01       	movw	r30, r18
    4cf0:	ee 0f       	add	r30, r30
    4cf2:	ff 1f       	adc	r31, r31
    4cf4:	e4 50       	subi	r30, 0x04	; 4
    4cf6:	fd 4f       	sbci	r31, 0xFD	; 253
    4cf8:	a5 91       	lpm	r26, Z+
    4cfa:	b4 91       	lpm	r27, Z
    4cfc:	8f b7       	in	r24, 0x3f	; 63
    4cfe:	f8 94       	cli
    4d00:	c1 11       	cpse	r28, r1
    4d02:	05 c0       	rjmp	.+10     	; 0x4d0e <digitalWrite+0x50>
    4d04:	ec 91       	ld	r30, X
    4d06:	10 95       	com	r17
    4d08:	1e 23       	and	r17, r30
    4d0a:	1c 93       	st	X, r17
    4d0c:	03 c0       	rjmp	.+6      	; 0x4d14 <digitalWrite+0x56>
    4d0e:	ec 91       	ld	r30, X
    4d10:	1e 2b       	or	r17, r30
    4d12:	1c 93       	st	X, r17
    4d14:	8f bf       	out	0x3f, r24	; 63
    4d16:	df 91       	pop	r29
    4d18:	cf 91       	pop	r28
    4d1a:	1f 91       	pop	r17
    4d1c:	08 95       	ret

00004d1e <__mulsi3>:
    4d1e:	db 01       	movw	r26, r22
    4d20:	8f 93       	push	r24
    4d22:	9f 93       	push	r25
    4d24:	4f d0       	rcall	.+158    	; 0x4dc4 <__muluhisi3>
    4d26:	bf 91       	pop	r27
    4d28:	af 91       	pop	r26
    4d2a:	a2 9f       	mul	r26, r18
    4d2c:	80 0d       	add	r24, r0
    4d2e:	91 1d       	adc	r25, r1
    4d30:	a3 9f       	mul	r26, r19
    4d32:	90 0d       	add	r25, r0
    4d34:	b2 9f       	mul	r27, r18
    4d36:	90 0d       	add	r25, r0
    4d38:	11 24       	eor	r1, r1
    4d3a:	08 95       	ret

00004d3c <__udivmodsi4>:
    4d3c:	a1 e2       	ldi	r26, 0x21	; 33
    4d3e:	1a 2e       	mov	r1, r26
    4d40:	aa 1b       	sub	r26, r26
    4d42:	bb 1b       	sub	r27, r27
    4d44:	fd 01       	movw	r30, r26
    4d46:	0d c0       	rjmp	.+26     	; 0x4d62 <__udivmodsi4_ep>

00004d48 <__udivmodsi4_loop>:
    4d48:	aa 1f       	adc	r26, r26
    4d4a:	bb 1f       	adc	r27, r27
    4d4c:	ee 1f       	adc	r30, r30
    4d4e:	ff 1f       	adc	r31, r31
    4d50:	a2 17       	cp	r26, r18
    4d52:	b3 07       	cpc	r27, r19
    4d54:	e4 07       	cpc	r30, r20
    4d56:	f5 07       	cpc	r31, r21
    4d58:	20 f0       	brcs	.+8      	; 0x4d62 <__udivmodsi4_ep>
    4d5a:	a2 1b       	sub	r26, r18
    4d5c:	b3 0b       	sbc	r27, r19
    4d5e:	e4 0b       	sbc	r30, r20
    4d60:	f5 0b       	sbc	r31, r21

00004d62 <__udivmodsi4_ep>:
    4d62:	66 1f       	adc	r22, r22
    4d64:	77 1f       	adc	r23, r23
    4d66:	88 1f       	adc	r24, r24
    4d68:	99 1f       	adc	r25, r25
    4d6a:	1a 94       	dec	r1
    4d6c:	69 f7       	brne	.-38     	; 0x4d48 <__udivmodsi4_loop>
    4d6e:	60 95       	com	r22
    4d70:	70 95       	com	r23
    4d72:	80 95       	com	r24
    4d74:	90 95       	com	r25
    4d76:	9b 01       	movw	r18, r22
    4d78:	ac 01       	movw	r20, r24
    4d7a:	bd 01       	movw	r22, r26
    4d7c:	cf 01       	movw	r24, r30
    4d7e:	08 95       	ret

00004d80 <__divmodsi4>:
    4d80:	05 2e       	mov	r0, r21
    4d82:	97 fb       	bst	r25, 7
    4d84:	16 f4       	brtc	.+4      	; 0x4d8a <__divmodsi4+0xa>
    4d86:	00 94       	com	r0
    4d88:	0f d0       	rcall	.+30     	; 0x4da8 <__negsi2>
    4d8a:	57 fd       	sbrc	r21, 7
    4d8c:	05 d0       	rcall	.+10     	; 0x4d98 <__divmodsi4_neg2>
    4d8e:	d6 df       	rcall	.-84     	; 0x4d3c <__udivmodsi4>
    4d90:	07 fc       	sbrc	r0, 7
    4d92:	02 d0       	rcall	.+4      	; 0x4d98 <__divmodsi4_neg2>
    4d94:	46 f4       	brtc	.+16     	; 0x4da6 <__divmodsi4_exit>
    4d96:	08 c0       	rjmp	.+16     	; 0x4da8 <__negsi2>

00004d98 <__divmodsi4_neg2>:
    4d98:	50 95       	com	r21
    4d9a:	40 95       	com	r20
    4d9c:	30 95       	com	r19
    4d9e:	21 95       	neg	r18
    4da0:	3f 4f       	sbci	r19, 0xFF	; 255
    4da2:	4f 4f       	sbci	r20, 0xFF	; 255
    4da4:	5f 4f       	sbci	r21, 0xFF	; 255

00004da6 <__divmodsi4_exit>:
    4da6:	08 95       	ret

00004da8 <__negsi2>:
    4da8:	90 95       	com	r25
    4daa:	80 95       	com	r24
    4dac:	70 95       	com	r23
    4dae:	61 95       	neg	r22
    4db0:	7f 4f       	sbci	r23, 0xFF	; 255
    4db2:	8f 4f       	sbci	r24, 0xFF	; 255
    4db4:	9f 4f       	sbci	r25, 0xFF	; 255
    4db6:	08 95       	ret

00004db8 <__tablejump2__>:
    4db8:	ee 0f       	add	r30, r30
    4dba:	ff 1f       	adc	r31, r31

00004dbc <__tablejump__>:
    4dbc:	05 90       	lpm	r0, Z+
    4dbe:	f4 91       	lpm	r31, Z
    4dc0:	e0 2d       	mov	r30, r0
    4dc2:	19 94       	eijmp

00004dc4 <__muluhisi3>:
    4dc4:	0d d0       	rcall	.+26     	; 0x4de0 <__umulhisi3>
    4dc6:	a5 9f       	mul	r26, r21
    4dc8:	90 0d       	add	r25, r0
    4dca:	b4 9f       	mul	r27, r20
    4dcc:	90 0d       	add	r25, r0
    4dce:	a4 9f       	mul	r26, r20
    4dd0:	80 0d       	add	r24, r0
    4dd2:	91 1d       	adc	r25, r1
    4dd4:	11 24       	eor	r1, r1
    4dd6:	08 95       	ret

00004dd8 <__tablejump_elpm__>:
    4dd8:	07 90       	elpm	r0, Z+
    4dda:	f6 91       	elpm	r31, Z
    4ddc:	e0 2d       	mov	r30, r0
    4dde:	19 94       	eijmp

00004de0 <__umulhisi3>:
    4de0:	a2 9f       	mul	r26, r18
    4de2:	b0 01       	movw	r22, r0
    4de4:	b3 9f       	mul	r27, r19
    4de6:	c0 01       	movw	r24, r0
    4de8:	a3 9f       	mul	r26, r19
    4dea:	70 0d       	add	r23, r0
    4dec:	81 1d       	adc	r24, r1
    4dee:	11 24       	eor	r1, r1
    4df0:	91 1d       	adc	r25, r1
    4df2:	b2 9f       	mul	r27, r18
    4df4:	70 0d       	add	r23, r0
    4df6:	81 1d       	adc	r24, r1
    4df8:	11 24       	eor	r1, r1
    4dfa:	91 1d       	adc	r25, r1
    4dfc:	08 95       	ret

00004dfe <vsprintf>:
    4dfe:	0f 93       	push	r16
    4e00:	1f 93       	push	r17
    4e02:	cf 93       	push	r28
    4e04:	df 93       	push	r29
    4e06:	cd b7       	in	r28, 0x3d	; 61
    4e08:	de b7       	in	r29, 0x3e	; 62
    4e0a:	2e 97       	sbiw	r28, 0x0e	; 14
    4e0c:	0f b6       	in	r0, 0x3f	; 63
    4e0e:	f8 94       	cli
    4e10:	de bf       	out	0x3e, r29	; 62
    4e12:	0f be       	out	0x3f, r0	; 63
    4e14:	cd bf       	out	0x3d, r28	; 61
    4e16:	8c 01       	movw	r16, r24
    4e18:	86 e0       	ldi	r24, 0x06	; 6
    4e1a:	8c 83       	std	Y+4, r24	; 0x04
    4e1c:	1a 83       	std	Y+2, r17	; 0x02
    4e1e:	09 83       	std	Y+1, r16	; 0x01
    4e20:	8f ef       	ldi	r24, 0xFF	; 255
    4e22:	9f e7       	ldi	r25, 0x7F	; 127
    4e24:	9e 83       	std	Y+6, r25	; 0x06
    4e26:	8d 83       	std	Y+5, r24	; 0x05
    4e28:	ce 01       	movw	r24, r28
    4e2a:	01 96       	adiw	r24, 0x01	; 1
    4e2c:	10 d0       	rcall	.+32     	; 0x4e4e <vfprintf>
    4e2e:	ef 81       	ldd	r30, Y+7	; 0x07
    4e30:	f8 85       	ldd	r31, Y+8	; 0x08
    4e32:	e0 0f       	add	r30, r16
    4e34:	f1 1f       	adc	r31, r17
    4e36:	10 82       	st	Z, r1
    4e38:	2e 96       	adiw	r28, 0x0e	; 14
    4e3a:	0f b6       	in	r0, 0x3f	; 63
    4e3c:	f8 94       	cli
    4e3e:	de bf       	out	0x3e, r29	; 62
    4e40:	0f be       	out	0x3f, r0	; 63
    4e42:	cd bf       	out	0x3d, r28	; 61
    4e44:	df 91       	pop	r29
    4e46:	cf 91       	pop	r28
    4e48:	1f 91       	pop	r17
    4e4a:	0f 91       	pop	r16
    4e4c:	08 95       	ret

00004e4e <vfprintf>:
    4e4e:	2f 92       	push	r2
    4e50:	3f 92       	push	r3
    4e52:	4f 92       	push	r4
    4e54:	5f 92       	push	r5
    4e56:	6f 92       	push	r6
    4e58:	7f 92       	push	r7
    4e5a:	8f 92       	push	r8
    4e5c:	9f 92       	push	r9
    4e5e:	af 92       	push	r10
    4e60:	bf 92       	push	r11
    4e62:	cf 92       	push	r12
    4e64:	df 92       	push	r13
    4e66:	ef 92       	push	r14
    4e68:	ff 92       	push	r15
    4e6a:	0f 93       	push	r16
    4e6c:	1f 93       	push	r17
    4e6e:	cf 93       	push	r28
    4e70:	df 93       	push	r29
    4e72:	cd b7       	in	r28, 0x3d	; 61
    4e74:	de b7       	in	r29, 0x3e	; 62
    4e76:	2c 97       	sbiw	r28, 0x0c	; 12
    4e78:	0f b6       	in	r0, 0x3f	; 63
    4e7a:	f8 94       	cli
    4e7c:	de bf       	out	0x3e, r29	; 62
    4e7e:	0f be       	out	0x3f, r0	; 63
    4e80:	cd bf       	out	0x3d, r28	; 61
    4e82:	7c 01       	movw	r14, r24
    4e84:	6b 01       	movw	r12, r22
    4e86:	8a 01       	movw	r16, r20
    4e88:	fc 01       	movw	r30, r24
    4e8a:	17 82       	std	Z+7, r1	; 0x07
    4e8c:	16 82       	std	Z+6, r1	; 0x06
    4e8e:	83 81       	ldd	r24, Z+3	; 0x03
    4e90:	81 ff       	sbrs	r24, 1
    4e92:	b0 c1       	rjmp	.+864    	; 0x51f4 <vfprintf+0x3a6>
    4e94:	ce 01       	movw	r24, r28
    4e96:	01 96       	adiw	r24, 0x01	; 1
    4e98:	4c 01       	movw	r8, r24
    4e9a:	f7 01       	movw	r30, r14
    4e9c:	93 81       	ldd	r25, Z+3	; 0x03
    4e9e:	f6 01       	movw	r30, r12
    4ea0:	93 fd       	sbrc	r25, 3
    4ea2:	85 91       	lpm	r24, Z+
    4ea4:	93 ff       	sbrs	r25, 3
    4ea6:	81 91       	ld	r24, Z+
    4ea8:	6f 01       	movw	r12, r30
    4eaa:	88 23       	and	r24, r24
    4eac:	09 f4       	brne	.+2      	; 0x4eb0 <vfprintf+0x62>
    4eae:	9e c1       	rjmp	.+828    	; 0x51ec <vfprintf+0x39e>
    4eb0:	85 32       	cpi	r24, 0x25	; 37
    4eb2:	39 f4       	brne	.+14     	; 0x4ec2 <vfprintf+0x74>
    4eb4:	93 fd       	sbrc	r25, 3
    4eb6:	85 91       	lpm	r24, Z+
    4eb8:	93 ff       	sbrs	r25, 3
    4eba:	81 91       	ld	r24, Z+
    4ebc:	6f 01       	movw	r12, r30
    4ebe:	85 32       	cpi	r24, 0x25	; 37
    4ec0:	21 f4       	brne	.+8      	; 0x4eca <vfprintf+0x7c>
    4ec2:	b7 01       	movw	r22, r14
    4ec4:	90 e0       	ldi	r25, 0x00	; 0
    4ec6:	c7 d1       	rcall	.+910    	; 0x5256 <fputc>
    4ec8:	e8 cf       	rjmp	.-48     	; 0x4e9a <vfprintf+0x4c>
    4eca:	51 2c       	mov	r5, r1
    4ecc:	31 2c       	mov	r3, r1
    4ece:	20 e0       	ldi	r18, 0x00	; 0
    4ed0:	20 32       	cpi	r18, 0x20	; 32
    4ed2:	a0 f4       	brcc	.+40     	; 0x4efc <vfprintf+0xae>
    4ed4:	8b 32       	cpi	r24, 0x2B	; 43
    4ed6:	69 f0       	breq	.+26     	; 0x4ef2 <vfprintf+0xa4>
    4ed8:	30 f4       	brcc	.+12     	; 0x4ee6 <vfprintf+0x98>
    4eda:	80 32       	cpi	r24, 0x20	; 32
    4edc:	59 f0       	breq	.+22     	; 0x4ef4 <vfprintf+0xa6>
    4ede:	83 32       	cpi	r24, 0x23	; 35
    4ee0:	69 f4       	brne	.+26     	; 0x4efc <vfprintf+0xae>
    4ee2:	20 61       	ori	r18, 0x10	; 16
    4ee4:	2c c0       	rjmp	.+88     	; 0x4f3e <vfprintf+0xf0>
    4ee6:	8d 32       	cpi	r24, 0x2D	; 45
    4ee8:	39 f0       	breq	.+14     	; 0x4ef8 <vfprintf+0xaa>
    4eea:	80 33       	cpi	r24, 0x30	; 48
    4eec:	39 f4       	brne	.+14     	; 0x4efc <vfprintf+0xae>
    4eee:	21 60       	ori	r18, 0x01	; 1
    4ef0:	26 c0       	rjmp	.+76     	; 0x4f3e <vfprintf+0xf0>
    4ef2:	22 60       	ori	r18, 0x02	; 2
    4ef4:	24 60       	ori	r18, 0x04	; 4
    4ef6:	23 c0       	rjmp	.+70     	; 0x4f3e <vfprintf+0xf0>
    4ef8:	28 60       	ori	r18, 0x08	; 8
    4efa:	21 c0       	rjmp	.+66     	; 0x4f3e <vfprintf+0xf0>
    4efc:	27 fd       	sbrc	r18, 7
    4efe:	27 c0       	rjmp	.+78     	; 0x4f4e <vfprintf+0x100>
    4f00:	30 ed       	ldi	r19, 0xD0	; 208
    4f02:	38 0f       	add	r19, r24
    4f04:	3a 30       	cpi	r19, 0x0A	; 10
    4f06:	78 f4       	brcc	.+30     	; 0x4f26 <vfprintf+0xd8>
    4f08:	26 ff       	sbrs	r18, 6
    4f0a:	06 c0       	rjmp	.+12     	; 0x4f18 <vfprintf+0xca>
    4f0c:	fa e0       	ldi	r31, 0x0A	; 10
    4f0e:	5f 9e       	mul	r5, r31
    4f10:	30 0d       	add	r19, r0
    4f12:	11 24       	eor	r1, r1
    4f14:	53 2e       	mov	r5, r19
    4f16:	13 c0       	rjmp	.+38     	; 0x4f3e <vfprintf+0xf0>
    4f18:	8a e0       	ldi	r24, 0x0A	; 10
    4f1a:	38 9e       	mul	r3, r24
    4f1c:	30 0d       	add	r19, r0
    4f1e:	11 24       	eor	r1, r1
    4f20:	33 2e       	mov	r3, r19
    4f22:	20 62       	ori	r18, 0x20	; 32
    4f24:	0c c0       	rjmp	.+24     	; 0x4f3e <vfprintf+0xf0>
    4f26:	8e 32       	cpi	r24, 0x2E	; 46
    4f28:	21 f4       	brne	.+8      	; 0x4f32 <vfprintf+0xe4>
    4f2a:	26 fd       	sbrc	r18, 6
    4f2c:	5f c1       	rjmp	.+702    	; 0x51ec <vfprintf+0x39e>
    4f2e:	20 64       	ori	r18, 0x40	; 64
    4f30:	06 c0       	rjmp	.+12     	; 0x4f3e <vfprintf+0xf0>
    4f32:	8c 36       	cpi	r24, 0x6C	; 108
    4f34:	11 f4       	brne	.+4      	; 0x4f3a <vfprintf+0xec>
    4f36:	20 68       	ori	r18, 0x80	; 128
    4f38:	02 c0       	rjmp	.+4      	; 0x4f3e <vfprintf+0xf0>
    4f3a:	88 36       	cpi	r24, 0x68	; 104
    4f3c:	41 f4       	brne	.+16     	; 0x4f4e <vfprintf+0x100>
    4f3e:	f6 01       	movw	r30, r12
    4f40:	93 fd       	sbrc	r25, 3
    4f42:	85 91       	lpm	r24, Z+
    4f44:	93 ff       	sbrs	r25, 3
    4f46:	81 91       	ld	r24, Z+
    4f48:	6f 01       	movw	r12, r30
    4f4a:	81 11       	cpse	r24, r1
    4f4c:	c1 cf       	rjmp	.-126    	; 0x4ed0 <vfprintf+0x82>
    4f4e:	98 2f       	mov	r25, r24
    4f50:	9f 7d       	andi	r25, 0xDF	; 223
    4f52:	95 54       	subi	r25, 0x45	; 69
    4f54:	93 30       	cpi	r25, 0x03	; 3
    4f56:	28 f4       	brcc	.+10     	; 0x4f62 <vfprintf+0x114>
    4f58:	0c 5f       	subi	r16, 0xFC	; 252
    4f5a:	1f 4f       	sbci	r17, 0xFF	; 255
    4f5c:	ff e3       	ldi	r31, 0x3F	; 63
    4f5e:	f9 83       	std	Y+1, r31	; 0x01
    4f60:	0d c0       	rjmp	.+26     	; 0x4f7c <vfprintf+0x12e>
    4f62:	83 36       	cpi	r24, 0x63	; 99
    4f64:	31 f0       	breq	.+12     	; 0x4f72 <vfprintf+0x124>
    4f66:	83 37       	cpi	r24, 0x73	; 115
    4f68:	71 f0       	breq	.+28     	; 0x4f86 <vfprintf+0x138>
    4f6a:	83 35       	cpi	r24, 0x53	; 83
    4f6c:	09 f0       	breq	.+2      	; 0x4f70 <vfprintf+0x122>
    4f6e:	57 c0       	rjmp	.+174    	; 0x501e <vfprintf+0x1d0>
    4f70:	21 c0       	rjmp	.+66     	; 0x4fb4 <vfprintf+0x166>
    4f72:	f8 01       	movw	r30, r16
    4f74:	80 81       	ld	r24, Z
    4f76:	89 83       	std	Y+1, r24	; 0x01
    4f78:	0e 5f       	subi	r16, 0xFE	; 254
    4f7a:	1f 4f       	sbci	r17, 0xFF	; 255
    4f7c:	44 24       	eor	r4, r4
    4f7e:	43 94       	inc	r4
    4f80:	51 2c       	mov	r5, r1
    4f82:	54 01       	movw	r10, r8
    4f84:	14 c0       	rjmp	.+40     	; 0x4fae <vfprintf+0x160>
    4f86:	38 01       	movw	r6, r16
    4f88:	f2 e0       	ldi	r31, 0x02	; 2
    4f8a:	6f 0e       	add	r6, r31
    4f8c:	71 1c       	adc	r7, r1
    4f8e:	f8 01       	movw	r30, r16
    4f90:	a0 80       	ld	r10, Z
    4f92:	b1 80       	ldd	r11, Z+1	; 0x01
    4f94:	26 ff       	sbrs	r18, 6
    4f96:	03 c0       	rjmp	.+6      	; 0x4f9e <vfprintf+0x150>
    4f98:	65 2d       	mov	r22, r5
    4f9a:	70 e0       	ldi	r23, 0x00	; 0
    4f9c:	02 c0       	rjmp	.+4      	; 0x4fa2 <vfprintf+0x154>
    4f9e:	6f ef       	ldi	r22, 0xFF	; 255
    4fa0:	7f ef       	ldi	r23, 0xFF	; 255
    4fa2:	c5 01       	movw	r24, r10
    4fa4:	2c 87       	std	Y+12, r18	; 0x0c
    4fa6:	4c d1       	rcall	.+664    	; 0x5240 <strnlen>
    4fa8:	2c 01       	movw	r4, r24
    4faa:	83 01       	movw	r16, r6
    4fac:	2c 85       	ldd	r18, Y+12	; 0x0c
    4fae:	2f 77       	andi	r18, 0x7F	; 127
    4fb0:	22 2e       	mov	r2, r18
    4fb2:	16 c0       	rjmp	.+44     	; 0x4fe0 <vfprintf+0x192>
    4fb4:	38 01       	movw	r6, r16
    4fb6:	f2 e0       	ldi	r31, 0x02	; 2
    4fb8:	6f 0e       	add	r6, r31
    4fba:	71 1c       	adc	r7, r1
    4fbc:	f8 01       	movw	r30, r16
    4fbe:	a0 80       	ld	r10, Z
    4fc0:	b1 80       	ldd	r11, Z+1	; 0x01
    4fc2:	26 ff       	sbrs	r18, 6
    4fc4:	03 c0       	rjmp	.+6      	; 0x4fcc <vfprintf+0x17e>
    4fc6:	65 2d       	mov	r22, r5
    4fc8:	70 e0       	ldi	r23, 0x00	; 0
    4fca:	02 c0       	rjmp	.+4      	; 0x4fd0 <vfprintf+0x182>
    4fcc:	6f ef       	ldi	r22, 0xFF	; 255
    4fce:	7f ef       	ldi	r23, 0xFF	; 255
    4fd0:	c5 01       	movw	r24, r10
    4fd2:	2c 87       	std	Y+12, r18	; 0x0c
    4fd4:	2a d1       	rcall	.+596    	; 0x522a <strnlen_P>
    4fd6:	2c 01       	movw	r4, r24
    4fd8:	2c 85       	ldd	r18, Y+12	; 0x0c
    4fda:	20 68       	ori	r18, 0x80	; 128
    4fdc:	22 2e       	mov	r2, r18
    4fde:	83 01       	movw	r16, r6
    4fe0:	23 fc       	sbrc	r2, 3
    4fe2:	19 c0       	rjmp	.+50     	; 0x5016 <vfprintf+0x1c8>
    4fe4:	83 2d       	mov	r24, r3
    4fe6:	90 e0       	ldi	r25, 0x00	; 0
    4fe8:	48 16       	cp	r4, r24
    4fea:	59 06       	cpc	r5, r25
    4fec:	a0 f4       	brcc	.+40     	; 0x5016 <vfprintf+0x1c8>
    4fee:	b7 01       	movw	r22, r14
    4ff0:	80 e2       	ldi	r24, 0x20	; 32
    4ff2:	90 e0       	ldi	r25, 0x00	; 0
    4ff4:	30 d1       	rcall	.+608    	; 0x5256 <fputc>
    4ff6:	3a 94       	dec	r3
    4ff8:	f5 cf       	rjmp	.-22     	; 0x4fe4 <vfprintf+0x196>
    4ffa:	f5 01       	movw	r30, r10
    4ffc:	27 fc       	sbrc	r2, 7
    4ffe:	85 91       	lpm	r24, Z+
    5000:	27 fe       	sbrs	r2, 7
    5002:	81 91       	ld	r24, Z+
    5004:	5f 01       	movw	r10, r30
    5006:	b7 01       	movw	r22, r14
    5008:	90 e0       	ldi	r25, 0x00	; 0
    500a:	25 d1       	rcall	.+586    	; 0x5256 <fputc>
    500c:	31 10       	cpse	r3, r1
    500e:	3a 94       	dec	r3
    5010:	f1 e0       	ldi	r31, 0x01	; 1
    5012:	4f 1a       	sub	r4, r31
    5014:	51 08       	sbc	r5, r1
    5016:	41 14       	cp	r4, r1
    5018:	51 04       	cpc	r5, r1
    501a:	79 f7       	brne	.-34     	; 0x4ffa <vfprintf+0x1ac>
    501c:	de c0       	rjmp	.+444    	; 0x51da <vfprintf+0x38c>
    501e:	84 36       	cpi	r24, 0x64	; 100
    5020:	11 f0       	breq	.+4      	; 0x5026 <vfprintf+0x1d8>
    5022:	89 36       	cpi	r24, 0x69	; 105
    5024:	31 f5       	brne	.+76     	; 0x5072 <vfprintf+0x224>
    5026:	f8 01       	movw	r30, r16
    5028:	27 ff       	sbrs	r18, 7
    502a:	07 c0       	rjmp	.+14     	; 0x503a <vfprintf+0x1ec>
    502c:	60 81       	ld	r22, Z
    502e:	71 81       	ldd	r23, Z+1	; 0x01
    5030:	82 81       	ldd	r24, Z+2	; 0x02
    5032:	93 81       	ldd	r25, Z+3	; 0x03
    5034:	0c 5f       	subi	r16, 0xFC	; 252
    5036:	1f 4f       	sbci	r17, 0xFF	; 255
    5038:	08 c0       	rjmp	.+16     	; 0x504a <vfprintf+0x1fc>
    503a:	60 81       	ld	r22, Z
    503c:	71 81       	ldd	r23, Z+1	; 0x01
    503e:	88 27       	eor	r24, r24
    5040:	77 fd       	sbrc	r23, 7
    5042:	80 95       	com	r24
    5044:	98 2f       	mov	r25, r24
    5046:	0e 5f       	subi	r16, 0xFE	; 254
    5048:	1f 4f       	sbci	r17, 0xFF	; 255
    504a:	2f 76       	andi	r18, 0x6F	; 111
    504c:	b2 2e       	mov	r11, r18
    504e:	97 ff       	sbrs	r25, 7
    5050:	09 c0       	rjmp	.+18     	; 0x5064 <vfprintf+0x216>
    5052:	90 95       	com	r25
    5054:	80 95       	com	r24
    5056:	70 95       	com	r23
    5058:	61 95       	neg	r22
    505a:	7f 4f       	sbci	r23, 0xFF	; 255
    505c:	8f 4f       	sbci	r24, 0xFF	; 255
    505e:	9f 4f       	sbci	r25, 0xFF	; 255
    5060:	20 68       	ori	r18, 0x80	; 128
    5062:	b2 2e       	mov	r11, r18
    5064:	2a e0       	ldi	r18, 0x0A	; 10
    5066:	30 e0       	ldi	r19, 0x00	; 0
    5068:	a4 01       	movw	r20, r8
    506a:	27 d1       	rcall	.+590    	; 0x52ba <__ultoa_invert>
    506c:	a8 2e       	mov	r10, r24
    506e:	a8 18       	sub	r10, r8
    5070:	43 c0       	rjmp	.+134    	; 0x50f8 <vfprintf+0x2aa>
    5072:	85 37       	cpi	r24, 0x75	; 117
    5074:	29 f4       	brne	.+10     	; 0x5080 <vfprintf+0x232>
    5076:	2f 7e       	andi	r18, 0xEF	; 239
    5078:	b2 2e       	mov	r11, r18
    507a:	2a e0       	ldi	r18, 0x0A	; 10
    507c:	30 e0       	ldi	r19, 0x00	; 0
    507e:	25 c0       	rjmp	.+74     	; 0x50ca <vfprintf+0x27c>
    5080:	f2 2f       	mov	r31, r18
    5082:	f9 7f       	andi	r31, 0xF9	; 249
    5084:	bf 2e       	mov	r11, r31
    5086:	8f 36       	cpi	r24, 0x6F	; 111
    5088:	c1 f0       	breq	.+48     	; 0x50ba <vfprintf+0x26c>
    508a:	18 f4       	brcc	.+6      	; 0x5092 <vfprintf+0x244>
    508c:	88 35       	cpi	r24, 0x58	; 88
    508e:	79 f0       	breq	.+30     	; 0x50ae <vfprintf+0x260>
    5090:	ad c0       	rjmp	.+346    	; 0x51ec <vfprintf+0x39e>
    5092:	80 37       	cpi	r24, 0x70	; 112
    5094:	19 f0       	breq	.+6      	; 0x509c <vfprintf+0x24e>
    5096:	88 37       	cpi	r24, 0x78	; 120
    5098:	21 f0       	breq	.+8      	; 0x50a2 <vfprintf+0x254>
    509a:	a8 c0       	rjmp	.+336    	; 0x51ec <vfprintf+0x39e>
    509c:	2f 2f       	mov	r18, r31
    509e:	20 61       	ori	r18, 0x10	; 16
    50a0:	b2 2e       	mov	r11, r18
    50a2:	b4 fe       	sbrs	r11, 4
    50a4:	0d c0       	rjmp	.+26     	; 0x50c0 <vfprintf+0x272>
    50a6:	8b 2d       	mov	r24, r11
    50a8:	84 60       	ori	r24, 0x04	; 4
    50aa:	b8 2e       	mov	r11, r24
    50ac:	09 c0       	rjmp	.+18     	; 0x50c0 <vfprintf+0x272>
    50ae:	24 ff       	sbrs	r18, 4
    50b0:	0a c0       	rjmp	.+20     	; 0x50c6 <vfprintf+0x278>
    50b2:	9f 2f       	mov	r25, r31
    50b4:	96 60       	ori	r25, 0x06	; 6
    50b6:	b9 2e       	mov	r11, r25
    50b8:	06 c0       	rjmp	.+12     	; 0x50c6 <vfprintf+0x278>
    50ba:	28 e0       	ldi	r18, 0x08	; 8
    50bc:	30 e0       	ldi	r19, 0x00	; 0
    50be:	05 c0       	rjmp	.+10     	; 0x50ca <vfprintf+0x27c>
    50c0:	20 e1       	ldi	r18, 0x10	; 16
    50c2:	30 e0       	ldi	r19, 0x00	; 0
    50c4:	02 c0       	rjmp	.+4      	; 0x50ca <vfprintf+0x27c>
    50c6:	20 e1       	ldi	r18, 0x10	; 16
    50c8:	32 e0       	ldi	r19, 0x02	; 2
    50ca:	f8 01       	movw	r30, r16
    50cc:	b7 fe       	sbrs	r11, 7
    50ce:	07 c0       	rjmp	.+14     	; 0x50de <vfprintf+0x290>
    50d0:	60 81       	ld	r22, Z
    50d2:	71 81       	ldd	r23, Z+1	; 0x01
    50d4:	82 81       	ldd	r24, Z+2	; 0x02
    50d6:	93 81       	ldd	r25, Z+3	; 0x03
    50d8:	0c 5f       	subi	r16, 0xFC	; 252
    50da:	1f 4f       	sbci	r17, 0xFF	; 255
    50dc:	06 c0       	rjmp	.+12     	; 0x50ea <vfprintf+0x29c>
    50de:	60 81       	ld	r22, Z
    50e0:	71 81       	ldd	r23, Z+1	; 0x01
    50e2:	80 e0       	ldi	r24, 0x00	; 0
    50e4:	90 e0       	ldi	r25, 0x00	; 0
    50e6:	0e 5f       	subi	r16, 0xFE	; 254
    50e8:	1f 4f       	sbci	r17, 0xFF	; 255
    50ea:	a4 01       	movw	r20, r8
    50ec:	e6 d0       	rcall	.+460    	; 0x52ba <__ultoa_invert>
    50ee:	a8 2e       	mov	r10, r24
    50f0:	a8 18       	sub	r10, r8
    50f2:	fb 2d       	mov	r31, r11
    50f4:	ff 77       	andi	r31, 0x7F	; 127
    50f6:	bf 2e       	mov	r11, r31
    50f8:	b6 fe       	sbrs	r11, 6
    50fa:	0b c0       	rjmp	.+22     	; 0x5112 <vfprintf+0x2c4>
    50fc:	2b 2d       	mov	r18, r11
    50fe:	2e 7f       	andi	r18, 0xFE	; 254
    5100:	a5 14       	cp	r10, r5
    5102:	50 f4       	brcc	.+20     	; 0x5118 <vfprintf+0x2ca>
    5104:	b4 fe       	sbrs	r11, 4
    5106:	0a c0       	rjmp	.+20     	; 0x511c <vfprintf+0x2ce>
    5108:	b2 fc       	sbrc	r11, 2
    510a:	08 c0       	rjmp	.+16     	; 0x511c <vfprintf+0x2ce>
    510c:	2b 2d       	mov	r18, r11
    510e:	2e 7e       	andi	r18, 0xEE	; 238
    5110:	05 c0       	rjmp	.+10     	; 0x511c <vfprintf+0x2ce>
    5112:	7a 2c       	mov	r7, r10
    5114:	2b 2d       	mov	r18, r11
    5116:	03 c0       	rjmp	.+6      	; 0x511e <vfprintf+0x2d0>
    5118:	7a 2c       	mov	r7, r10
    511a:	01 c0       	rjmp	.+2      	; 0x511e <vfprintf+0x2d0>
    511c:	75 2c       	mov	r7, r5
    511e:	24 ff       	sbrs	r18, 4
    5120:	0d c0       	rjmp	.+26     	; 0x513c <vfprintf+0x2ee>
    5122:	fe 01       	movw	r30, r28
    5124:	ea 0d       	add	r30, r10
    5126:	f1 1d       	adc	r31, r1
    5128:	80 81       	ld	r24, Z
    512a:	80 33       	cpi	r24, 0x30	; 48
    512c:	11 f4       	brne	.+4      	; 0x5132 <vfprintf+0x2e4>
    512e:	29 7e       	andi	r18, 0xE9	; 233
    5130:	09 c0       	rjmp	.+18     	; 0x5144 <vfprintf+0x2f6>
    5132:	22 ff       	sbrs	r18, 2
    5134:	06 c0       	rjmp	.+12     	; 0x5142 <vfprintf+0x2f4>
    5136:	73 94       	inc	r7
    5138:	73 94       	inc	r7
    513a:	04 c0       	rjmp	.+8      	; 0x5144 <vfprintf+0x2f6>
    513c:	82 2f       	mov	r24, r18
    513e:	86 78       	andi	r24, 0x86	; 134
    5140:	09 f0       	breq	.+2      	; 0x5144 <vfprintf+0x2f6>
    5142:	73 94       	inc	r7
    5144:	23 fd       	sbrc	r18, 3
    5146:	12 c0       	rjmp	.+36     	; 0x516c <vfprintf+0x31e>
    5148:	20 ff       	sbrs	r18, 0
    514a:	06 c0       	rjmp	.+12     	; 0x5158 <vfprintf+0x30a>
    514c:	5a 2c       	mov	r5, r10
    514e:	73 14       	cp	r7, r3
    5150:	18 f4       	brcc	.+6      	; 0x5158 <vfprintf+0x30a>
    5152:	53 0c       	add	r5, r3
    5154:	57 18       	sub	r5, r7
    5156:	73 2c       	mov	r7, r3
    5158:	73 14       	cp	r7, r3
    515a:	60 f4       	brcc	.+24     	; 0x5174 <vfprintf+0x326>
    515c:	b7 01       	movw	r22, r14
    515e:	80 e2       	ldi	r24, 0x20	; 32
    5160:	90 e0       	ldi	r25, 0x00	; 0
    5162:	2c 87       	std	Y+12, r18	; 0x0c
    5164:	78 d0       	rcall	.+240    	; 0x5256 <fputc>
    5166:	73 94       	inc	r7
    5168:	2c 85       	ldd	r18, Y+12	; 0x0c
    516a:	f6 cf       	rjmp	.-20     	; 0x5158 <vfprintf+0x30a>
    516c:	73 14       	cp	r7, r3
    516e:	10 f4       	brcc	.+4      	; 0x5174 <vfprintf+0x326>
    5170:	37 18       	sub	r3, r7
    5172:	01 c0       	rjmp	.+2      	; 0x5176 <vfprintf+0x328>
    5174:	31 2c       	mov	r3, r1
    5176:	24 ff       	sbrs	r18, 4
    5178:	11 c0       	rjmp	.+34     	; 0x519c <vfprintf+0x34e>
    517a:	b7 01       	movw	r22, r14
    517c:	80 e3       	ldi	r24, 0x30	; 48
    517e:	90 e0       	ldi	r25, 0x00	; 0
    5180:	2c 87       	std	Y+12, r18	; 0x0c
    5182:	69 d0       	rcall	.+210    	; 0x5256 <fputc>
    5184:	2c 85       	ldd	r18, Y+12	; 0x0c
    5186:	22 ff       	sbrs	r18, 2
    5188:	16 c0       	rjmp	.+44     	; 0x51b6 <vfprintf+0x368>
    518a:	21 ff       	sbrs	r18, 1
    518c:	03 c0       	rjmp	.+6      	; 0x5194 <vfprintf+0x346>
    518e:	88 e5       	ldi	r24, 0x58	; 88
    5190:	90 e0       	ldi	r25, 0x00	; 0
    5192:	02 c0       	rjmp	.+4      	; 0x5198 <vfprintf+0x34a>
    5194:	88 e7       	ldi	r24, 0x78	; 120
    5196:	90 e0       	ldi	r25, 0x00	; 0
    5198:	b7 01       	movw	r22, r14
    519a:	0c c0       	rjmp	.+24     	; 0x51b4 <vfprintf+0x366>
    519c:	82 2f       	mov	r24, r18
    519e:	86 78       	andi	r24, 0x86	; 134
    51a0:	51 f0       	breq	.+20     	; 0x51b6 <vfprintf+0x368>
    51a2:	21 fd       	sbrc	r18, 1
    51a4:	02 c0       	rjmp	.+4      	; 0x51aa <vfprintf+0x35c>
    51a6:	80 e2       	ldi	r24, 0x20	; 32
    51a8:	01 c0       	rjmp	.+2      	; 0x51ac <vfprintf+0x35e>
    51aa:	8b e2       	ldi	r24, 0x2B	; 43
    51ac:	27 fd       	sbrc	r18, 7
    51ae:	8d e2       	ldi	r24, 0x2D	; 45
    51b0:	b7 01       	movw	r22, r14
    51b2:	90 e0       	ldi	r25, 0x00	; 0
    51b4:	50 d0       	rcall	.+160    	; 0x5256 <fputc>
    51b6:	a5 14       	cp	r10, r5
    51b8:	30 f4       	brcc	.+12     	; 0x51c6 <vfprintf+0x378>
    51ba:	b7 01       	movw	r22, r14
    51bc:	80 e3       	ldi	r24, 0x30	; 48
    51be:	90 e0       	ldi	r25, 0x00	; 0
    51c0:	4a d0       	rcall	.+148    	; 0x5256 <fputc>
    51c2:	5a 94       	dec	r5
    51c4:	f8 cf       	rjmp	.-16     	; 0x51b6 <vfprintf+0x368>
    51c6:	aa 94       	dec	r10
    51c8:	f4 01       	movw	r30, r8
    51ca:	ea 0d       	add	r30, r10
    51cc:	f1 1d       	adc	r31, r1
    51ce:	80 81       	ld	r24, Z
    51d0:	b7 01       	movw	r22, r14
    51d2:	90 e0       	ldi	r25, 0x00	; 0
    51d4:	40 d0       	rcall	.+128    	; 0x5256 <fputc>
    51d6:	a1 10       	cpse	r10, r1
    51d8:	f6 cf       	rjmp	.-20     	; 0x51c6 <vfprintf+0x378>
    51da:	33 20       	and	r3, r3
    51dc:	09 f4       	brne	.+2      	; 0x51e0 <vfprintf+0x392>
    51de:	5d ce       	rjmp	.-838    	; 0x4e9a <vfprintf+0x4c>
    51e0:	b7 01       	movw	r22, r14
    51e2:	80 e2       	ldi	r24, 0x20	; 32
    51e4:	90 e0       	ldi	r25, 0x00	; 0
    51e6:	37 d0       	rcall	.+110    	; 0x5256 <fputc>
    51e8:	3a 94       	dec	r3
    51ea:	f7 cf       	rjmp	.-18     	; 0x51da <vfprintf+0x38c>
    51ec:	f7 01       	movw	r30, r14
    51ee:	86 81       	ldd	r24, Z+6	; 0x06
    51f0:	97 81       	ldd	r25, Z+7	; 0x07
    51f2:	02 c0       	rjmp	.+4      	; 0x51f8 <vfprintf+0x3aa>
    51f4:	8f ef       	ldi	r24, 0xFF	; 255
    51f6:	9f ef       	ldi	r25, 0xFF	; 255
    51f8:	2c 96       	adiw	r28, 0x0c	; 12
    51fa:	0f b6       	in	r0, 0x3f	; 63
    51fc:	f8 94       	cli
    51fe:	de bf       	out	0x3e, r29	; 62
    5200:	0f be       	out	0x3f, r0	; 63
    5202:	cd bf       	out	0x3d, r28	; 61
    5204:	df 91       	pop	r29
    5206:	cf 91       	pop	r28
    5208:	1f 91       	pop	r17
    520a:	0f 91       	pop	r16
    520c:	ff 90       	pop	r15
    520e:	ef 90       	pop	r14
    5210:	df 90       	pop	r13
    5212:	cf 90       	pop	r12
    5214:	bf 90       	pop	r11
    5216:	af 90       	pop	r10
    5218:	9f 90       	pop	r9
    521a:	8f 90       	pop	r8
    521c:	7f 90       	pop	r7
    521e:	6f 90       	pop	r6
    5220:	5f 90       	pop	r5
    5222:	4f 90       	pop	r4
    5224:	3f 90       	pop	r3
    5226:	2f 90       	pop	r2
    5228:	08 95       	ret

0000522a <strnlen_P>:
    522a:	fc 01       	movw	r30, r24
    522c:	05 90       	lpm	r0, Z+
    522e:	61 50       	subi	r22, 0x01	; 1
    5230:	70 40       	sbci	r23, 0x00	; 0
    5232:	01 10       	cpse	r0, r1
    5234:	d8 f7       	brcc	.-10     	; 0x522c <strnlen_P+0x2>
    5236:	80 95       	com	r24
    5238:	90 95       	com	r25
    523a:	8e 0f       	add	r24, r30
    523c:	9f 1f       	adc	r25, r31
    523e:	08 95       	ret

00005240 <strnlen>:
    5240:	fc 01       	movw	r30, r24
    5242:	61 50       	subi	r22, 0x01	; 1
    5244:	70 40       	sbci	r23, 0x00	; 0
    5246:	01 90       	ld	r0, Z+
    5248:	01 10       	cpse	r0, r1
    524a:	d8 f7       	brcc	.-10     	; 0x5242 <strnlen+0x2>
    524c:	80 95       	com	r24
    524e:	90 95       	com	r25
    5250:	8e 0f       	add	r24, r30
    5252:	9f 1f       	adc	r25, r31
    5254:	08 95       	ret

00005256 <fputc>:
    5256:	0f 93       	push	r16
    5258:	1f 93       	push	r17
    525a:	cf 93       	push	r28
    525c:	df 93       	push	r29
    525e:	18 2f       	mov	r17, r24
    5260:	09 2f       	mov	r16, r25
    5262:	eb 01       	movw	r28, r22
    5264:	8b 81       	ldd	r24, Y+3	; 0x03
    5266:	81 fd       	sbrc	r24, 1
    5268:	03 c0       	rjmp	.+6      	; 0x5270 <fputc+0x1a>
    526a:	8f ef       	ldi	r24, 0xFF	; 255
    526c:	9f ef       	ldi	r25, 0xFF	; 255
    526e:	20 c0       	rjmp	.+64     	; 0x52b0 <fputc+0x5a>
    5270:	82 ff       	sbrs	r24, 2
    5272:	10 c0       	rjmp	.+32     	; 0x5294 <fputc+0x3e>
    5274:	4e 81       	ldd	r20, Y+6	; 0x06
    5276:	5f 81       	ldd	r21, Y+7	; 0x07
    5278:	2c 81       	ldd	r18, Y+4	; 0x04
    527a:	3d 81       	ldd	r19, Y+5	; 0x05
    527c:	42 17       	cp	r20, r18
    527e:	53 07       	cpc	r21, r19
    5280:	7c f4       	brge	.+30     	; 0x52a0 <fputc+0x4a>
    5282:	e8 81       	ld	r30, Y
    5284:	f9 81       	ldd	r31, Y+1	; 0x01
    5286:	9f 01       	movw	r18, r30
    5288:	2f 5f       	subi	r18, 0xFF	; 255
    528a:	3f 4f       	sbci	r19, 0xFF	; 255
    528c:	39 83       	std	Y+1, r19	; 0x01
    528e:	28 83       	st	Y, r18
    5290:	10 83       	st	Z, r17
    5292:	06 c0       	rjmp	.+12     	; 0x52a0 <fputc+0x4a>
    5294:	e8 85       	ldd	r30, Y+8	; 0x08
    5296:	f9 85       	ldd	r31, Y+9	; 0x09
    5298:	81 2f       	mov	r24, r17
    529a:	19 95       	eicall
    529c:	89 2b       	or	r24, r25
    529e:	29 f7       	brne	.-54     	; 0x526a <fputc+0x14>
    52a0:	2e 81       	ldd	r18, Y+6	; 0x06
    52a2:	3f 81       	ldd	r19, Y+7	; 0x07
    52a4:	2f 5f       	subi	r18, 0xFF	; 255
    52a6:	3f 4f       	sbci	r19, 0xFF	; 255
    52a8:	3f 83       	std	Y+7, r19	; 0x07
    52aa:	2e 83       	std	Y+6, r18	; 0x06
    52ac:	81 2f       	mov	r24, r17
    52ae:	90 2f       	mov	r25, r16
    52b0:	df 91       	pop	r29
    52b2:	cf 91       	pop	r28
    52b4:	1f 91       	pop	r17
    52b6:	0f 91       	pop	r16
    52b8:	08 95       	ret

000052ba <__ultoa_invert>:
    52ba:	fa 01       	movw	r30, r20
    52bc:	aa 27       	eor	r26, r26
    52be:	28 30       	cpi	r18, 0x08	; 8
    52c0:	51 f1       	breq	.+84     	; 0x5316 <__ultoa_invert+0x5c>
    52c2:	20 31       	cpi	r18, 0x10	; 16
    52c4:	81 f1       	breq	.+96     	; 0x5326 <__ultoa_invert+0x6c>
    52c6:	e8 94       	clt
    52c8:	6f 93       	push	r22
    52ca:	6e 7f       	andi	r22, 0xFE	; 254
    52cc:	6e 5f       	subi	r22, 0xFE	; 254
    52ce:	7f 4f       	sbci	r23, 0xFF	; 255
    52d0:	8f 4f       	sbci	r24, 0xFF	; 255
    52d2:	9f 4f       	sbci	r25, 0xFF	; 255
    52d4:	af 4f       	sbci	r26, 0xFF	; 255
    52d6:	b1 e0       	ldi	r27, 0x01	; 1
    52d8:	3e d0       	rcall	.+124    	; 0x5356 <__ultoa_invert+0x9c>
    52da:	b4 e0       	ldi	r27, 0x04	; 4
    52dc:	3c d0       	rcall	.+120    	; 0x5356 <__ultoa_invert+0x9c>
    52de:	67 0f       	add	r22, r23
    52e0:	78 1f       	adc	r23, r24
    52e2:	89 1f       	adc	r24, r25
    52e4:	9a 1f       	adc	r25, r26
    52e6:	a1 1d       	adc	r26, r1
    52e8:	68 0f       	add	r22, r24
    52ea:	79 1f       	adc	r23, r25
    52ec:	8a 1f       	adc	r24, r26
    52ee:	91 1d       	adc	r25, r1
    52f0:	a1 1d       	adc	r26, r1
    52f2:	6a 0f       	add	r22, r26
    52f4:	71 1d       	adc	r23, r1
    52f6:	81 1d       	adc	r24, r1
    52f8:	91 1d       	adc	r25, r1
    52fa:	a1 1d       	adc	r26, r1
    52fc:	20 d0       	rcall	.+64     	; 0x533e <__ultoa_invert+0x84>
    52fe:	09 f4       	brne	.+2      	; 0x5302 <__ultoa_invert+0x48>
    5300:	68 94       	set
    5302:	3f 91       	pop	r19
    5304:	2a e0       	ldi	r18, 0x0A	; 10
    5306:	26 9f       	mul	r18, r22
    5308:	11 24       	eor	r1, r1
    530a:	30 19       	sub	r19, r0
    530c:	30 5d       	subi	r19, 0xD0	; 208
    530e:	31 93       	st	Z+, r19
    5310:	de f6       	brtc	.-74     	; 0x52c8 <__ultoa_invert+0xe>
    5312:	cf 01       	movw	r24, r30
    5314:	08 95       	ret
    5316:	46 2f       	mov	r20, r22
    5318:	47 70       	andi	r20, 0x07	; 7
    531a:	40 5d       	subi	r20, 0xD0	; 208
    531c:	41 93       	st	Z+, r20
    531e:	b3 e0       	ldi	r27, 0x03	; 3
    5320:	0f d0       	rcall	.+30     	; 0x5340 <__ultoa_invert+0x86>
    5322:	c9 f7       	brne	.-14     	; 0x5316 <__ultoa_invert+0x5c>
    5324:	f6 cf       	rjmp	.-20     	; 0x5312 <__ultoa_invert+0x58>
    5326:	46 2f       	mov	r20, r22
    5328:	4f 70       	andi	r20, 0x0F	; 15
    532a:	40 5d       	subi	r20, 0xD0	; 208
    532c:	4a 33       	cpi	r20, 0x3A	; 58
    532e:	18 f0       	brcs	.+6      	; 0x5336 <__ultoa_invert+0x7c>
    5330:	49 5d       	subi	r20, 0xD9	; 217
    5332:	31 fd       	sbrc	r19, 1
    5334:	40 52       	subi	r20, 0x20	; 32
    5336:	41 93       	st	Z+, r20
    5338:	02 d0       	rcall	.+4      	; 0x533e <__ultoa_invert+0x84>
    533a:	a9 f7       	brne	.-22     	; 0x5326 <__ultoa_invert+0x6c>
    533c:	ea cf       	rjmp	.-44     	; 0x5312 <__ultoa_invert+0x58>
    533e:	b4 e0       	ldi	r27, 0x04	; 4
    5340:	a6 95       	lsr	r26
    5342:	97 95       	ror	r25
    5344:	87 95       	ror	r24
    5346:	77 95       	ror	r23
    5348:	67 95       	ror	r22
    534a:	ba 95       	dec	r27
    534c:	c9 f7       	brne	.-14     	; 0x5340 <__ultoa_invert+0x86>
    534e:	00 97       	sbiw	r24, 0x00	; 0
    5350:	61 05       	cpc	r22, r1
    5352:	71 05       	cpc	r23, r1
    5354:	08 95       	ret
    5356:	9b 01       	movw	r18, r22
    5358:	ac 01       	movw	r20, r24
    535a:	0a 2e       	mov	r0, r26
    535c:	06 94       	lsr	r0
    535e:	57 95       	ror	r21
    5360:	47 95       	ror	r20
    5362:	37 95       	ror	r19
    5364:	27 95       	ror	r18
    5366:	ba 95       	dec	r27
    5368:	c9 f7       	brne	.-14     	; 0x535c <__ultoa_invert+0xa2>
    536a:	62 0f       	add	r22, r18
    536c:	73 1f       	adc	r23, r19
    536e:	84 1f       	adc	r24, r20
    5370:	95 1f       	adc	r25, r21
    5372:	a0 1d       	adc	r26, r0
    5374:	08 95       	ret

00005376 <_exit>:
    5376:	f8 94       	cli

00005378 <__stop_program>:
    5378:	ff cf       	rjmp	.-2      	; 0x5378 <__stop_program>
